((lp0
(I6
I0
I0
I0
tp1
a(I11
I1
I1
I1
tp2
a(I16
I0
I0
I0
tp3
a(I1
I0
I0
I0
tp4
a(I11
I0
I0
I0
tp5
a(I-1
I0
I0
I0
tp6
a(I1
I0
I0
I0
tp7
a(I11
I0
I0
I0
tp8
a(I11
I0
I0
I0
tp9
a(I-1
I0
I0
I0
tp10
a(I11
I0
I0
I0
tp11
a(I31
I1
I1
I0
tp12
a(I29
I0
I0
I0
tp13
a(I5
I0
I0
I0
tp14
a(I1
I0
I0
I0
tp15
a(I6
I0
I0
I0
tp16
a(I12
I0
I0
I0
tp17
a(I29
I0
I0
I0
tp18
a(I5
I0
I0
I0
tp19
a(I2
I1
I1
I1
tp20
a(I6
I0
I0
I0
tp21
a(I12
I0
I0
I0
tp22
a(I5
I0
I0
I0
tp23
a(I11
I0
I0
I0
tp24
a(I-1
I0
I0
I0
tp25
a(I11
I0
I0
I0
tp26
a(I-1
I0
I0
I0
tp27
a(I11
I0
I0
I0
tp28
a(I0
I0
I0
I0
tp29
a(I11
I0
I0
I0
tp30
a(I-1
I0
I0
I0
tp31
a(I11
I0
I0
I0
tp32
a(I16
I0
I0
I0
tp33
a(I6
I0
I0
I0
tp34
a(I11
I0
I0
I0
tp35
a(I31
I0
I0
I0
tp36
a(I17
I0
I0
I0
tp37
a(I2
I0
I0
I0
tp38
a(I11
I0
I0
I0
tp39
a(I5
I0
I0
I0
tp40
a(I6
I0
I0
I0
tp41
a(I6
I0
I0
I0
tp42
a(I12
I0
I0
I0
tp43
a(I5
I0
I0
I0
tp44
a(I6
I0
I0
I0
tp45
a(I12
I0
I0
I0
tp46
a(I5
I0
I0
I0
tp47
a(I2
I1
I1
I1
tp48
a(I11
I0
I0
I0
tp49
a(I-1
I0
I0
I0
tp50
a(I2
I1
I1
I1
tp51
a(I6
I1
I1
I1
tp52
a(I11
I1
I1
I1
tp53
a(I31
I1
I1
I0
tp54
a(I6
I0
I0
I0
tp55
a(I11
I1
I1
I1
tp56
a(I-1
I0
I0
I0
tp57
a(I5
I0
I0
I0
tp58
a(I6
I0
I0
I0
tp59
a(I6
I0
I0
I0
tp60
a(I6
I0
I0
I0
tp61
a(I12
I0
I0
I0
tp62
a(I11
I0
I0
I0
tp63
a(I12
I0
I0
I0
tp64
a(I5
I0
I0
I0
tp65
a(I0
I0
I0
I0
tp66
a(I5
I0
I0
I0
tp67
a(I2
I1
I1
I1
tp68
a(I11
I0
I0
I0
tp69
a(I-1
I0
I0
I0
tp70
a(I2
I1
I1
I1
tp71
a(I11
I0
I0
I0
tp72
a(I27
I0
I0
I0
tp73
a(I24
I0
I0
I0
tp74
a(I26
I0
I0
I0
tp75
a(I2
I0
I0
I0
tp76
a(I6
I0
I0
I0
tp77
a(I11
I0
I0
I0
tp78
a(I5
I0
I0
I0
tp79
a(I11
I0
I0
I0
tp80
a(I-1
I0
I0
I0
tp81
a(I5
I1
I1
I1
tp82
a(I6
I0
I0
I0
tp83
a(I-1
I0
I0
I0
tp84
a(I24
I0
I0
I0
tp85
a(I26
I0
I0
I0
tp86
a(I6
I0
I0
I0
tp87
a(I11
I0
I0
I0
tp88
a(I11
I0
I0
I0
tp89
a(I-1
I0
I0
I0
tp90
a(I5
I0
I0
I0
tp91
a(I2
I0
I0
I0
tp92
a(I11
I0
I0
I0
tp93
a(I31
I0
I0
I0
tp94
a(I29
I0
I0
I0
tp95
a(I29
I0
I0
I0
tp96
a(I6
I0
I0
I0
tp97
a(I24
I0
I0
I0
tp98
a(I2
I1
I1
I1
tp99
a(I11
I0
I0
I0
tp100
a(I-1
I0
I0
I0
tp101
a(I19
I0
I0
I0
tp102
a(I-1
I0
I0
I0
tp103
a(I2
I1
I1
I1
tp104
a(I21
I0
I0
I0
tp105
a(I6
I0
I0
I0
tp106
a(I12
I0
I0
I0
tp107
a(I30
I0
I0
I0
tp108
a(I5
I1
I1
I1
tp109
a(I11
I0
I0
I0
tp110
a(I-1
I0
I0
I0
tp111
a(I11
I0
I0
I0
tp112
a(I-1
I0
I0
I0
tp113
a(I11
I0
I0
I0
tp114
a(I-1
I0
I0
I0
tp115
a(I11
I0
I0
I0
tp116
a(I-1
I0
I0
I0
tp117
a(I11
I0
I0
I0
tp118
a(I-1
I0
I0
I0
tp119
a(I-1
I0
I0
I0
tp120
a(I0
I0
I0
I0
tp121
a(I11
I0
I0
I0
tp122
a(I11
I0
I0
I0
tp123
a(I-1
I0
I0
I0
tp124
a(I12
I0
I0
I0
tp125
a(I-1
I0
I0
I0
tp126
a(I-1
I0
I0
I0
tp127
a(I29
I0
I0
I0
tp128
a(I5
I0
I0
I0
tp129
a(I2
I1
I1
I1
tp130
a(I6
I0
I0
I0
tp131
a(I11
I0
I0
I0
tp132
a(I11
I0
I0
I0
tp133
a(I11
I0
I0
I0
tp134
a(I27
I0
I0
I0
tp135
a(I13
I0
I0
I0
tp136
a(I11
I0
I0
I0
tp137
a(I5
I0
I0
I0
tp138
a(I4
I1
I1
I1
tp139
a(I-1
I0
I0
I0
tp140
a(lp141
(I28
I0
I0
I0
tp142
a(I5
I0
I0
I0
tp143
a(I2
I0
I0
I0
tp144
a(I12
I0
I0
I0
tp145
a(I-1
I0
I0
I0
tp146
a(I11
I0
I0
I0
tp147
a(I-1
I0
I0
I0
tp148
a(I19
I0
I0
I0
tp149
a(I2
I0
I0
I0
tp150
a(I6
I0
I0
I0
tp151
a(I11
I0
I0
I0
tp152
a(I-1
I0
I0
I0
tp153
a(I27
I0
I0
I0
tp154
a(I6
I0
I0
I0
tp155
a(I11
I0
I0
I0
tp156
a(I32
I0
I0
I0
tp157
a(I27
I0
I0
I0
tp158
a(I18
I0
I0
I0
tp159
a(I6
I0
I0
I0
tp160
a(I0
I0
I0
I0
tp161
a(I6
I0
I0
I0
tp162
a(I12
I0
I0
I0
tp163
a(I-1
I0
I0
I0
tp164
a(I0
I0
I0
I0
tp165
a(I27
I0
I0
I0
tp166
a(I17
I0
I0
I0
tp167
a(I5
I0
I0
I0
tp168
a(I2
I1
I1
I1
tp169
a(I19
I0
I0
I0
tp170
a(I6
I0
I0
I0
tp171
a(I11
I0
I0
I0
tp172
a(I-1
I0
I0
I0
tp173
a(I6
I0
I0
I0
tp174
a(I6
I0
I0
I0
tp175
a(I12
I0
I0
I1
tp176
a(I27
I0
I0
I0
tp177
a(I29
I0
I0
I0
tp178
a(I-1
I0
I0
I0
tp179
a(I28
I0
I0
I0
tp180
a(I2
I0
I0
I0
tp181
a(I6
I0
I0
I0
tp182
a(I12
I0
I0
I0
tp183
a(I5
I0
I0
I0
tp184
a(I2
I0
I0
I0
tp185
a(I6
I0
I0
I0
tp186
a(I11
I0
I0
I0
tp187
a(I-1
I0
I0
I0
tp188
a(I6
I0
I0
I0
tp189
a(I12
I0
I0
I0
tp190
a(I0
I0
I0
I0
tp191
a(I6
I0
I0
I0
tp192
a(I12
I0
I0
I0
tp193
a(I-1
I0
I0
I0
tp194
a(I-1
I0
I0
I0
tp195
a(I0
I0
I0
I0
tp196
a(I2
I0
I0
I0
tp197
a(I6
I0
I0
I0
tp198
a(I11
I0
I0
I0
tp199
a(I5
I0
I0
I0
tp200
a(I4
I0
I0
I0
tp201
a(I6
I0
I0
I0
tp202
a(I11
I0
I0
I0
tp203
a(I-1
I0
I0
I0
tp204
a(I32
I0
I0
I0
tp205
a(I19
I0
I0
I0
tp206
a(I31
I0
I0
I0
tp207
a(I2
I1
I1
I1
tp208
a(I11
I1
I1
I1
tp209
a(I11
I1
I1
I1
tp210
a(I-1
I0
I0
I0
tp211
a(I6
I0
I0
I0
tp212
a(I12
I0
I0
I0
tp213
a(I5
I0
I0
I0
tp214
a(I2
I0
I0
I0
tp215
a(I6
I0
I0
I0
tp216
a(I11
I0
I0
I0
tp217
a(I-1
I0
I0
I0
tp218
a(I5
I0
I0
I0
tp219
a(I11
I0
I0
I0
tp220
a(I2
I0
I0
I0
tp221
a(I12
I0
I0
I0
tp222
a(I11
I0
I0
I0
tp223
a(I-1
I0
I0
I0
tp224
a(I30
I0
I0
I0
tp225
a(I29
I0
I0
I0
tp226
a(I19
I0
I0
I0
tp227
a(I29
I0
I0
I0
tp228
a(I-1
I0
I0
I0
tp229
a(I2
I0
I0
I0
tp230
a(I11
I0
I0
I0
tp231
a(I11
I0
I0
I0
tp232
a(I-1
I0
I0
I0
tp233
a(I2
I1
I1
I1
tp234
a(I1
I0
I0
I0
tp235
a(I11
I0
I0
I0
tp236
a(I-1
I0
I0
I0
tp237
a(I1
I0
I0
I0
tp238
a(I11
I0
I0
I0
tp239
a(I-1
I0
I0
I0
tp240
a(I19
I0
I0
I0
tp241
a(I6
I0
I0
I0
tp242
a(I6
I0
I0
I0
tp243
a(I11
I0
I0
I0
tp244
a(I27
I0
I0
I0
tp245
a(I29
I0
I0
I0
tp246
a(I5
I0
I0
I0
tp247
a(I2
I0
I0
I0
tp248
a(I12
I0
I0
I0
tp249
a(I5
I0
I0
I0
tp250
a(I2
I0
I0
I0
tp251
a(I6
I0
I0
I0
tp252
a(I11
I0
I0
I0
tp253
a(I5
I0
I0
I0
tp254
a(I2
I0
I0
I0
tp255
a(I11
I0
I0
I0
tp256
a(I-1
I0
I0
I0
tp257
a(I6
I0
I0
I0
tp258
a(I11
I0
I0
I0
tp259
a(I12
I0
I0
I0
tp260
a(I-1
I0
I0
I0
tp261
a(I11
I0
I0
I0
tp262
a(I11
I0
I0
I0
tp263
a(I0
I0
I0
I0
tp264
a(I11
I0
I0
I0
tp265
a(I4
I0
I0
I0
tp266
a(I4
I0
I0
I0
tp267
a(I4
I0
I0
I0
tp268
a(I-1
I0
I0
I0
tp269
a(I-1
I0
I0
I0
tp270
a(lp271
(I5
I0
I0
I0
tp272
a(I2
I1
I1
I1
tp273
a(I11
I0
I0
I0
tp274
a(I5
I0
I0
I0
tp275
a(I2
I1
I1
I1
tp276
a(I1
I0
I0
I0
tp277
a(I11
I0
I0
I0
tp278
a(I-1
I0
I0
I0
tp279
a(I2
I0
I0
I0
tp280
a(I11
I0
I0
I0
tp281
a(I27
I1
I1
I0
tp282
a(I29
I0
I0
I0
tp283
a(I5
I0
I0
I0
tp284
a(I2
I1
I1
I1
tp285
a(I11
I0
I0
I0
tp286
a(I5
I0
I0
I0
tp287
a(I2
I0
I0
I0
tp288
a(I6
I0
I0
I0
tp289
a(I11
I0
I0
I0
tp290
a(I32
I0
I0
I0
tp291
a(I10
I0
I0
I0
tp292
a(I26
I0
I0
I0
tp293
a(I7
I0
I0
I0
tp294
a(I11
I0
I0
I0
tp295
a(I5
I0
I0
I0
tp296
a(I2
I1
I1
I1
tp297
a(I11
I0
I0
I0
tp298
a(I6
I0
I0
I0
tp299
a(I-1
I0
I0
I0
tp300
a(I2
I1
I1
I1
tp301
a(I11
I1
I1
I1
tp302
a(I12
I1
I1
I0
tp303
a(I11
I1
I1
I1
tp304
a(I-1
I0
I0
I0
tp305
a(I29
I1
I1
I0
tp306
a(I5
I0
I0
I0
tp307
a(I1
I0
I0
I0
tp308
a(I11
I0
I0
I0
tp309
a(I1
I0
I0
I0
tp310
a(I5
I0
I0
I0
tp311
a(I2
I1
I1
I1
tp312
a(I11
I0
I0
I0
tp313
a(I16
I0
I0
I0
tp314
a(I6
I0
I0
I0
tp315
a(I12
I0
I0
I0
tp316
a(I-1
I0
I0
I0
tp317
a(I27
I0
I0
I0
tp318
a(I2
I1
I1
I1
tp319
a(I6
I0
I0
I0
tp320
a(I12
I0
I0
I0
tp321
a(I5
I0
I0
I0
tp322
a(I28
I0
I0
I0
tp323
a(I22
I0
I0
I0
tp324
a(I2
I1
I1
I1
tp325
a(I11
I0
I0
I0
tp326
a(I11
I0
I0
I0
tp327
a(I11
I0
I0
I0
tp328
a(I-1
I0
I0
I0
tp329
a(I2
I1
I1
I1
tp330
a(I19
I0
I0
I0
tp331
a(I29
I0
I0
I0
tp332
a(I6
I0
I0
I0
tp333
a(I11
I0
I0
I0
tp334
a(I10
I0
I0
I0
tp335
a(I26
I0
I0
I0
tp336
a(I6
I0
I0
I0
tp337
a(I11
I0
I0
I0
tp338
a(I5
I0
I0
I0
tp339
a(I2
I1
I1
I1
tp340
a(I11
I0
I0
I0
tp341
a(I11
I0
I0
I0
tp342
a(I0
I0
I0
I0
tp343
a(I2
I1
I1
I1
tp344
a(I11
I0
I0
I0
tp345
a(I11
I0
I0
I0
tp346
a(I-1
I0
I0
I0
tp347
a(I28
I0
I0
I0
tp348
a(I2
I1
I1
I1
tp349
a(I11
I0
I0
I0
tp350
a(I11
I0
I0
I0
tp351
a(I11
I0
I0
I0
tp352
a(I11
I0
I0
I0
tp353
a(I24
I0
I0
I0
tp354
a(I26
I0
I0
I0
tp355
a(I18
I0
I0
I0
tp356
a(I6
I0
I0
I0
tp357
a(I11
I0
I0
I0
tp358
a(I0
I0
I0
I0
tp359
a(I11
I0
I0
I0
tp360
a(I12
I0
I0
I1
tp361
a(I-1
I0
I0
I0
tp362
a(I2
I1
I1
I1
tp363
a(I11
I0
I0
I0
tp364
a(I29
I0
I0
I0
tp365
a(I5
I0
I0
I0
tp366
a(I2
I1
I1
I1
tp367
a(I11
I0
I0
I0
tp368
a(I27
I1
I1
I0
tp369
a(I5
I0
I0
I0
tp370
a(I2
I1
I1
I1
tp371
a(I6
I0
I0
I0
tp372
a(I11
I0
I0
I0
tp373
a(I10
I0
I0
I0
tp374
a(I26
I0
I0
I0
tp375
a(I6
I0
I0
I0
tp376
a(I12
I0
I0
I0
tp377
a(I24
I0
I0
I0
tp378
a(I26
I0
I0
I0
tp379
a(I5
I0
I0
I0
tp380
a(I12
I0
I0
I0
tp381
a(I5
I0
I0
I0
tp382
a(I11
I0
I0
I0
tp383
a(I-1
I0
I0
I0
tp384
a(lp385
(I3
I0
I0
I0
tp386
a(I30
I0
I0
I0
tp387
a(I6
I0
I0
I0
tp388
a(I6
I0
I0
I0
tp389
a(I12
I0
I0
I0
tp390
a(I5
I0
I0
I0
tp391
a(I6
I0
I0
I0
tp392
a(I12
I0
I0
I0
tp393
a(I5
I0
I0
I0
tp394
a(I6
I0
I0
I0
tp395
a(I11
I0
I0
I0
tp396
a(I19
I0
I0
I0
tp397
a(I19
I0
I0
I0
tp398
a(I5
I0
I0
I0
tp399
a(I5
I0
I0
I0
tp400
a(I2
I1
I1
I1
tp401
a(I6
I0
I0
I0
tp402
a(I12
I0
I0
I0
tp403
a(I-1
I0
I0
I0
tp404
a(I6
I0
I0
I0
tp405
a(I6
I0
I0
I0
tp406
a(I11
I0
I0
I0
tp407
a(I6
I0
I0
I0
tp408
a(I12
I0
I0
I0
tp409
a(I24
I0
I0
I0
tp410
a(I2
I1
I1
I1
tp411
a(I11
I0
I0
I0
tp412
a(I27
I0
I0
I0
tp413
a(I29
I0
I0
I0
tp414
a(I5
I0
I0
I0
tp415
a(I6
I0
I0
I0
tp416
a(I6
I0
I0
I0
tp417
a(I-1
I0
I0
I0
tp418
a(I0
I0
I0
I0
tp419
a(I27
I0
I0
I0
tp420
a(I2
I1
I1
I1
tp421
a(I11
I0
I0
I0
tp422
a(I24
I0
I0
I0
tp423
a(I33
I1
I1
I1
tp424
a(I31
I1
I1
I0
tp425
a(I19
I0
I0
I0
tp426
a(I6
I0
I0
I0
tp427
a(I-1
I0
I0
I0
tp428
a(I11
I0
I0
I0
tp429
a(I-1
I0
I0
I0
tp430
a(I-1
I0
I0
I0
tp431
a(I11
I1
I1
I1
tp432
a(I-1
I0
I0
I0
tp433
a(I2
I1
I1
I1
tp434
a(I6
I1
I1
I1
tp435
a(I11
I0
I0
I0
tp436
a(I11
I0
I0
I0
tp437
a(I12
I0
I0
I0
tp438
a(I-1
I0
I0
I0
tp439
a(I0
I0
I0
I0
tp440
a(I6
I0
I0
I0
tp441
a(I11
I0
I0
I0
tp442
a(I11
I0
I0
I0
tp443
a(I0
I0
I0
I0
tp444
a(I11
I0
I0
I0
tp445
a(I-1
I0
I0
I0
tp446
a(I19
I0
I0
I0
tp447
a(I11
I0
I0
I0
tp448
a(I0
I0
I0
I0
tp449
a(I2
I1
I1
I1
tp450
a(I6
I0
I0
I0
tp451
a(I12
I0
I0
I0
tp452
a(I12
I0
I0
I0
tp453
a(I-1
I0
I0
I0
tp454
a(I-1
I0
I0
I0
tp455
a(I6
I0
I0
I0
tp456
a(I5
I0
I0
I0
tp457
a(I2
I1
I1
I1
tp458
a(I6
I0
I0
I0
tp459
a(I12
I0
I0
I0
tp460
a(I5
I0
I0
I0
tp461
a(I2
I0
I0
I0
tp462
a(I11
I0
I0
I0
tp463
a(I30
I0
I0
I0
tp464
a(I19
I0
I0
I0
tp465
a(I6
I0
I0
I0
tp466
a(I24
I0
I0
I0
tp467
a(I6
I0
I0
I0
tp468
a(I0
I0
I0
I0
tp469
a(I6
I0
I0
I0
tp470
a(I-1
I0
I0
I0
tp471
a(I11
I0
I0
I0
tp472
a(I31
I1
I1
I0
tp473
a(I19
I0
I0
I0
tp474
a(I2
I1
I1
I1
tp475
a(I6
I0
I0
I0
tp476
a(I11
I0
I0
I0
tp477
a(I5
I0
I0
I0
tp478
a(I5
I0
I0
I0
tp479
a(I24
I0
I0
I0
tp480
a(I1
I0
I0
I0
tp481
a(I11
I0
I0
I0
tp482
a(I5
I0
I0
I0
tp483
a(I2
I1
I1
I1
tp484
a(I6
I0
I0
I0
tp485
a(I11
I0
I0
I0
tp486
a(I5
I0
I0
I0
tp487
a(I2
I1
I1
I1
tp488
a(I12
I0
I0
I0
tp489
a(I-1
I0
I0
I0
tp490
a(I5
I0
I0
I0
tp491
a(I32
I0
I0
I0
tp492
a(I31
I1
I1
I0
tp493
a(I29
I0
I0
I0
tp494
a(I19
I0
I0
I0
tp495
a(I5
I0
I0
I0
tp496
a(I6
I0
I0
I0
tp497
a(I0
I0
I0
I0
tp498
a(I6
I0
I0
I0
tp499
a(I-1
I0
I0
I0
tp500
a(I26
I0
I0
I0
tp501
a(I18
I0
I0
I0
tp502
a(I12
I0
I0
I0
tp503
a(I30
I0
I0
I0
tp504
a(I6
I0
I0
I0
tp505
a(I11
I0
I0
I0
tp506
a(I11
I0
I0
I0
tp507
a(I-1
I0
I0
I0
tp508
a(I-1
I0
I0
I0
tp509
a(I6
I0
I0
I0
tp510
a(I12
I0
I0
I0
tp511
a(I30
I0
I0
I0
tp512
a(I2
I1
I1
I1
tp513
a(I8
I0
I0
I0
tp514
a(I11
I0
I0
I0
tp515
a(I5
I0
I0
I0
tp516
a(I6
I0
I0
I0
tp517
a(I5
I0
I0
I0
tp518
a(I11
I0
I0
I0
tp519
a(I-1
I0
I0
I0
tp520
a(I11
I0
I0
I0
tp521
a(I0
I0
I0
I0
tp522
a(I11
I1
I1
I1
tp523
a(I-1
I0
I0
I0
tp524
a(I0
I0
I0
I0
tp525
a(I11
I0
I0
I0
tp526
a(I29
I0
I0
I0
tp527
a(I11
I0
I0
I0
tp528
a(lp529
(I12
I0
I0
I0
tp530
a(I24
I0
I0
I0
tp531
a(I2
I1
I1
I1
tp532
a(I11
I0
I0
I0
tp533
a(I5
I0
I0
I0
tp534
a(I2
I1
I1
I1
tp535
a(I6
I0
I0
I0
tp536
a(I11
I0
I0
I0
tp537
a(I27
I0
I0
I0
tp538
a(I5
I0
I0
I0
tp539
a(I6
I0
I0
I0
tp540
a(I29
I0
I0
I0
tp541
a(I5
I0
I0
I0
tp542
a(I2
I1
I1
I1
tp543
a(I11
I0
I0
I0
tp544
a(I5
I0
I0
I0
tp545
a(I2
I1
I1
I1
tp546
a(I6
I0
I0
I0
tp547
a(I12
I0
I0
I0
tp548
a(I5
I0
I0
I0
tp549
a(I2
I1
I1
I1
tp550
a(I11
I0
I0
I0
tp551
a(I-1
I0
I0
I0
tp552
a(I2
I1
I1
I1
tp553
a(I11
I0
I0
I0
tp554
a(I5
I0
I0
I0
tp555
a(I11
I0
I0
I0
tp556
a(I-1
I0
I0
I0
tp557
a(I0
I0
I0
I0
tp558
a(I2
I1
I1
I1
tp559
a(I11
I0
I0
I0
tp560
a(I12
I0
I0
I0
tp561
a(I-1
I0
I0
I0
tp562
a(I19
I1
I1
I1
tp563
a(I19
I0
I0
I0
tp564
a(I5
I1
I1
I0
tp565
a(I5
I0
I0
I0
tp566
a(I12
I1
I1
I0
tp567
a(I5
I0
I0
I0
tp568
a(I5
I0
I0
I0
tp569
a(I2
I1
I1
I1
tp570
a(I6
I0
I0
I0
tp571
a(I11
I0
I0
I0
tp572
a(I-1
I0
I0
I0
tp573
a(I5
I1
I1
I0
tp574
a(I2
I1
I1
I1
tp575
a(I11
I0
I0
I0
tp576
a(I27
I1
I1
I0
tp577
a(I5
I0
I0
I0
tp578
a(I2
I1
I1
I1
tp579
a(I11
I1
I1
I1
tp580
a(I-1
I0
I0
I0
tp581
a(I12
I1
I1
I0
tp582
a(I27
I1
I1
I0
tp583
a(I24
I0
I0
I0
tp584
a(I26
I0
I0
I0
tp585
a(I5
I0
I0
I0
tp586
a(I2
I1
I1
I1
tp587
a(I11
I1
I1
I1
tp588
a(I11
I0
I0
I0
tp589
a(I-1
I0
I0
I0
tp590
a(I5
I0
I0
I0
tp591
a(I32
I0
I0
I0
tp592
a(I2
I1
I1
I1
tp593
a(I11
I0
I0
I0
tp594
a(I27
I0
I0
I0
tp595
a(I11
I0
I0
I0
tp596
a(I5
I0
I0
I0
tp597
a(I11
I0
I0
I0
tp598
a(I-1
I0
I0
I0
tp599
a(I2
I0
I0
I0
tp600
a(I6
I0
I0
I0
tp601
a(I12
I1
I1
I0
tp602
a(I30
I0
I0
I0
tp603
a(I29
I0
I0
I0
tp604
a(I29
I0
I0
I0
tp605
a(I5
I0
I0
I0
tp606
a(I11
I0
I0
I0
tp607
a(I32
I0
I0
I0
tp608
a(I30
I0
I0
I0
tp609
a(I29
I0
I0
I0
tp610
a(I18
I0
I0
I0
tp611
a(I6
I0
I0
I0
tp612
a(I19
I0
I0
I0
tp613
a(I5
I1
I1
I0
tp614
a(I2
I1
I1
I1
tp615
a(I11
I0
I0
I0
tp616
a(I5
I0
I0
I0
tp617
a(I11
I0
I0
I0
tp618
a(I-1
I0
I0
I0
tp619
a(I2
I1
I1
I1
tp620
a(I11
I0
I0
I0
tp621
a(I5
I0
I0
I0
tp622
a(I11
I0
I0
I0
tp623
a(I-1
I0
I0
I0
tp624
a(I0
I0
I0
I0
tp625
a(I2
I1
I1
I1
tp626
a(I6
I0
I0
I0
tp627
a(I11
I0
I0
I0
tp628
a(I11
I0
I0
I0
tp629
a(I5
I0
I0
I0
tp630
a(I6
I0
I0
I0
tp631
a(I12
I0
I0
I0
tp632
a(I5
I0
I0
I0
tp633
a(I2
I1
I1
I1
tp634
a(I11
I0
I0
I0
tp635
a(I30
I0
I0
I0
tp636
a(I19
I0
I0
I0
tp637
a(I29
I0
I0
I0
tp638
a(I5
I0
I0
I0
tp639
a(I2
I1
I1
I1
tp640
a(I6
I0
I0
I0
tp641
a(I6
I0
I0
I0
tp642
a(I12
I0
I0
I0
tp643
a(I-1
I0
I0
I0
tp644
a(lp645
(I2
I0
I0
I0
tp646
a(I8
I0
I0
I0
tp647
a(I0
I0
I0
I0
tp648
a(I8
I0
I0
I0
tp649
a(I6
I0
I0
I0
tp650
a(I11
I0
I0
I0
tp651
a(I27
I0
I0
I0
tp652
a(I5
I0
I0
I0
tp653
a(I11
I1
I1
I1
tp654
a(I-1
I0
I0
I0
tp655
a(I5
I0
I0
I0
tp656
a(I2
I0
I0
I0
tp657
a(I6
I0
I0
I0
tp658
a(I6
I0
I0
I0
tp659
a(I12
I0
I0
I0
tp660
a(I5
I0
I0
I0
tp661
a(I1
I0
I0
I0
tp662
a(I6
I0
I0
I0
tp663
a(I12
I0
I0
I0
tp664
a(I0
I0
I0
I0
tp665
a(I1
I0
I0
I0
tp666
a(I12
I0
I0
I0
tp667
a(I5
I0
I0
I0
tp668
a(I6
I0
I0
I0
tp669
a(I12
I0
I0
I0
tp670
a(I5
I0
I0
I0
tp671
a(I2
I0
I0
I0
tp672
a(I6
I0
I0
I0
tp673
a(I11
I0
I0
I0
tp674
a(I5
I0
I0
I0
tp675
a(I11
I0
I0
I0
tp676
a(I16
I0
I0
I0
tp677
a(I11
I0
I0
I0
tp678
a(I12
I0
I0
I0
tp679
a(I5
I0
I0
I0
tp680
a(I11
I0
I0
I0
tp681
a(I5
I0
I0
I0
tp682
a(I2
I0
I0
I0
tp683
a(I6
I0
I0
I0
tp684
a(I11
I0
I0
I0
tp685
a(I5
I0
I0
I0
tp686
a(I6
I0
I0
I0
tp687
a(I1
I0
I0
I0
tp688
a(I-1
I0
I0
I0
tp689
a(I2
I0
I0
I0
tp690
a(I6
I1
I1
I1
tp691
a(I-1
I0
I0
I0
tp692
a(I5
I0
I0
I0
tp693
a(I1
I0
I0
I0
tp694
a(I12
I1
I1
I0
tp695
a(I29
I0
I0
I0
tp696
a(I5
I0
I0
I0
tp697
a(I12
I0
I0
I0
tp698
a(I5
I0
I0
I0
tp699
a(I12
I0
I0
I0
tp700
a(I5
I1
I1
I1
tp701
a(I2
I0
I0
I0
tp702
a(I19
I0
I0
I0
tp703
a(I6
I0
I0
I0
tp704
a(I11
I0
I0
I0
tp705
a(I-1
I0
I0
I0
tp706
a(I27
I0
I0
I0
tp707
a(I19
I0
I0
I0
tp708
a(I26
I0
I0
I0
tp709
a(I5
I1
I1
I1
tp710
a(I2
I0
I0
I0
tp711
a(I11
I0
I0
I0
tp712
a(I11
I0
I0
I0
tp713
a(I27
I0
I0
I0
tp714
a(I24
I0
I0
I0
tp715
a(I26
I0
I0
I0
tp716
a(I2
I0
I0
I0
tp717
a(I11
I0
I0
I0
tp718
a(I5
I0
I0
I0
tp719
a(I7
I0
I0
I0
tp720
a(I0
I0
I0
I0
tp721
a(I6
I0
I0
I0
tp722
a(I12
I0
I0
I0
tp723
a(I-1
I0
I0
I0
tp724
a(I0
I0
I0
I0
tp725
a(I6
I0
I0
I0
tp726
a(I12
I0
I0
I0
tp727
a(I5
I0
I0
I0
tp728
a(I6
I0
I0
I0
tp729
a(I12
I0
I0
I0
tp730
a(I-1
I0
I0
I0
tp731
a(I5
I0
I0
I0
tp732
a(I2
I0
I0
I0
tp733
a(I6
I0
I0
I0
tp734
a(I11
I0
I0
I0
tp735
a(I2
I0
I0
I0
tp736
a(I12
I0
I0
I0
tp737
a(I27
I0
I0
I0
tp738
a(I5
I1
I1
I1
tp739
a(I1
I0
I0
I0
tp740
a(I11
I0
I0
I0
tp741
a(I1
I0
I0
I0
tp742
a(I0
I0
I0
I0
tp743
a(I27
I0
I0
I0
tp744
a(I11
I0
I0
I0
tp745
a(I5
I1
I1
I1
tp746
a(I1
I0
I0
I0
tp747
a(I11
I0
I0
I0
tp748
a(I-1
I0
I0
I0
tp749
a(I2
I0
I0
I0
tp750
a(I28
I0
I0
I0
tp751
a(I6
I0
I0
I0
tp752
a(I12
I0
I0
I0
tp753
a(I27
I1
I1
I0
tp754
a(I2
I0
I0
I0
tp755
a(I12
I0
I0
I0
tp756
a(I5
I0
I0
I0
tp757
a(I1
I0
I0
I0
tp758
a(I12
I0
I0
I0
tp759
a(I-1
I0
I0
I0
tp760
a(I6
I1
I1
I1
tp761
a(I5
I0
I0
I0
tp762
a(I6
I0
I0
I0
tp763
a(I11
I0
I0
I0
tp764
a(I12
I0
I0
I0
tp765
a(I-1
I0
I0
I0
tp766
a(I6
I0
I0
I0
tp767
a(I12
I0
I0
I0
tp768
a(I27
I0
I0
I0
tp769
a(I1
I0
I0
I0
tp770
a(I12
I0
I0
I0
tp771
a(I5
I0
I0
I0
tp772
a(I2
I0
I0
I0
tp773
a(I12
I0
I0
I0
tp774
a(I29
I0
I0
I0
tp775
a(I0
I0
I0
I0
tp776
a(I1
I0
I0
I0
tp777
a(I29
I0
I0
I0
tp778
a(I5
I0
I0
I0
tp779
a(I1
I0
I0
I0
tp780
a(I12
I0
I0
I0
tp781
a(I29
I0
I0
I0
tp782
a(I-1
I0
I0
I0
tp783
a(I2
I0
I0
I0
tp784
a(I12
I0
I0
I0
tp785
a(I27
I0
I0
I0
tp786
a(I1
I0
I0
I0
tp787
a(I12
I0
I0
I0
tp788
a(I5
I1
I1
I1
tp789
a(I2
I0
I0
I0
tp790
a(I11
I0
I0
I0
tp791
a(I-1
I0
I0
I0
tp792
a(I1
I0
I0
I0
tp793
a(I11
I0
I0
I0
tp794
a(I5
I0
I0
I0
tp795
a(I2
I0
I0
I0
tp796
a(I6
I1
I1
I1
tp797
a(I12
I0
I0
I0
tp798
a(I27
I0
I0
I0
tp799
a(I5
I0
I0
I0
tp800
a(I5
I0
I0
I0
tp801
a(I6
I1
I1
I1
tp802
a(I12
I0
I0
I0
tp803
a(I-1
I0
I0
I0
tp804
a(lp805
(I11
I0
I0
I0
tp806
a(I27
I0
I0
I0
tp807
a(I29
I0
I0
I0
tp808
a(I12
I0
I0
I0
tp809
a(I5
I0
I0
I0
tp810
a(I11
I1
I1
I1
tp811
a(I27
I0
I0
I0
tp812
a(I11
I0
I0
I0
tp813
a(I11
I0
I0
I0
tp814
a(I-1
I0
I0
I0
tp815
a(I5
I0
I0
I0
tp816
a(I1
I0
I0
I0
tp817
a(I-1
I0
I0
I0
tp818
a(I11
I0
I0
I0
tp819
a(I27
I0
I0
I0
tp820
a(I11
I1
I1
I1
tp821
a(I5
I0
I0
I0
tp822
a(I2
I0
I0
I0
tp823
a(I11
I0
I0
I0
tp824
a(I5
I0
I0
I0
tp825
a(I17
I0
I0
I0
tp826
a(I27
I0
I0
I0
tp827
a(I28
I0
I0
I0
tp828
a(I5
I0
I0
I0
tp829
a(I6
I0
I0
I0
tp830
a(I11
I0
I0
I0
tp831
a(I-1
I0
I0
I0
tp832
a(I17
I0
I0
I0
tp833
a(I27
I0
I0
I0
tp834
a(I29
I0
I0
I1
tp835
a(I5
I0
I0
I0
tp836
a(I11
I0
I0
I0
tp837
a(I1
I0
I0
I0
tp838
a(I-1
I0
I0
I0
tp839
a(I1
I0
I0
I0
tp840
a(I-1
I0
I0
I0
tp841
a(I0
I1
I1
I1
tp842
a(I2
I0
I0
I0
tp843
a(I11
I0
I0
I0
tp844
a(I27
I0
I0
I0
tp845
a(I19
I0
I0
I0
tp846
a(I29
I0
I0
I0
tp847
a(I5
I0
I0
I0
tp848
a(I1
I0
I0
I0
tp849
a(I-1
I0
I0
I0
tp850
a(I11
I0
I0
I0
tp851
a(I5
I0
I0
I0
tp852
a(I1
I0
I0
I0
tp853
a(I12
I0
I0
I0
tp854
a(I5
I0
I0
I0
tp855
a(I2
I0
I0
I0
tp856
a(I6
I0
I0
I0
tp857
a(I11
I1
I1
I1
tp858
a(I-1
I0
I0
I0
tp859
a(I19
I0
I0
I0
tp860
a(I29
I0
I0
I0
tp861
a(I12
I0
I0
I0
tp862
a(I19
I0
I0
I0
tp863
a(I5
I0
I0
I0
tp864
a(I11
I0
I0
I0
tp865
a(I-1
I0
I0
I0
tp866
a(I11
I0
I0
I0
tp867
a(I0
I1
I1
I1
tp868
a(I11
I0
I0
I0
tp869
a(I11
I0
I0
I0
tp870
a(I17
I0
I0
I0
tp871
a(I27
I0
I0
I0
tp872
a(I5
I0
I0
I0
tp873
a(I2
I0
I0
I0
tp874
a(I11
I0
I0
I0
tp875
a(I5
I0
I0
I0
tp876
a(I11
I0
I0
I0
tp877
a(I-1
I0
I0
I0
tp878
a(I18
I0
I0
I0
tp879
a(I11
I0
I0
I0
tp880
a(I5
I0
I0
I0
tp881
a(I11
I0
I0
I0
tp882
a(I-1
I0
I0
I0
tp883
a(I11
I0
I0
I0
tp884
a(I19
I0
I0
I0
tp885
a(I27
I0
I0
I0
tp886
a(I6
I0
I0
I0
tp887
a(I11
I0
I0
I0
tp888
a(I-1
I0
I0
I0
tp889
a(I2
I0
I0
I0
tp890
a(I11
I0
I0
I0
tp891
a(I-1
I0
I0
I0
tp892
a(I0
I1
I1
I1
tp893
a(I27
I0
I0
I0
tp894
a(I24
I0
I0
I0
tp895
a(I26
I0
I0
I0
tp896
a(I-1
I0
I0
I0
tp897
a(I11
I0
I0
I0
tp898
a(I-1
I0
I0
I0
tp899
a(I35
I0
I0
I0
tp900
a(I17
I0
I0
I0
tp901
a(I27
I0
I0
I0
tp902
a(I6
I0
I0
I0
tp903
a(I5
I0
I0
I0
tp904
a(I6
I0
I0
I0
tp905
a(I6
I0
I0
I0
tp906
a(I12
I0
I0
I0
tp907
a(I6
I0
I0
I0
tp908
a(I5
I0
I0
I0
tp909
a(I2
I0
I0
I0
tp910
a(I7
I0
I0
I0
tp911
a(I6
I0
I0
I0
tp912
a(I11
I0
I0
I0
tp913
a(I-1
I0
I0
I0
tp914
a(I11
I0
I0
I0
tp915
a(I27
I0
I0
I0
tp916
a(I11
I1
I1
I1
tp917
a(I16
I0
I0
I0
tp918
a(I1
I0
I0
I0
tp919
a(I6
I0
I0
I0
tp920
a(I11
I0
I0
I0
tp921
a(I-1
I0
I0
I0
tp922
a(I17
I0
I0
I0
tp923
a(I27
I0
I0
I0
tp924
a(I5
I0
I0
I0
tp925
a(I11
I0
I0
I0
tp926
a(I5
I0
I0
I0
tp927
a(I11
I0
I0
I0
tp928
a(I1
I0
I0
I0
tp929
a(I-1
I0
I0
I0
tp930
a(I1
I0
I0
I0
tp931
a(I-1
I0
I0
I0
tp932
a(lp933
(I6
I0
I0
I0
tp934
a(I11
I0
I0
I0
tp935
a(I-1
I0
I0
I0
tp936
a(I2
I1
I1
I1
tp937
a(I11
I0
I0
I0
tp938
a(I11
I1
I1
I1
tp939
a(I27
I0
I0
I0
tp940
a(I29
I0
I0
I0
tp941
a(I5
I1
I1
I1
tp942
a(I11
I1
I1
I1
tp943
a(I-1
I0
I0
I0
tp944
a(I2
I1
I1
I1
tp945
a(I11
I0
I0
I0
tp946
a(I11
I0
I0
I0
tp947
a(I5
I0
I0
I0
tp948
a(I2
I1
I1
I1
tp949
a(I1
I0
I0
I0
tp950
a(I11
I0
I0
I0
tp951
a(I12
I0
I0
I0
tp952
a(I-1
I0
I0
I0
tp953
a(I5
I0
I0
I0
tp954
a(I6
I0
I0
I0
tp955
a(I1
I0
I0
I0
tp956
a(I27
I0
I0
I0
tp957
a(I5
I0
I0
I0
tp958
a(I11
I0
I0
I0
tp959
a(I11
I0
I0
I0
tp960
a(I-1
I0
I0
I0
tp961
a(I29
I0
I0
I0
tp962
a(I5
I0
I0
I0
tp963
a(I2
I1
I1
I1
tp964
a(I11
I0
I0
I0
tp965
a(I5
I0
I0
I0
tp966
a(I11
I1
I1
I1
tp967
a(I-1
I0
I0
I0
tp968
a(I0
I0
I0
I0
tp969
a(I19
I0
I0
I0
tp970
a(I29
I0
I0
I1
tp971
a(I5
I0
I0
I0
tp972
a(I6
I0
I0
I0
tp973
a(I11
I0
I0
I0
tp974
a(I5
I1
I1
I1
tp975
a(I2
I1
I1
I1
tp976
a(I6
I0
I0
I0
tp977
a(I11
I0
I0
I0
tp978
a(I5
I0
I0
I0
tp979
a(I2
I1
I1
I1
tp980
a(I11
I0
I0
I0
tp981
a(I-1
I0
I0
I0
tp982
a(I2
I1
I1
I1
tp983
a(I1
I0
I0
I0
tp984
a(I11
I0
I0
I0
tp985
a(I-1
I0
I0
I0
tp986
a(I1
I0
I0
I0
tp987
a(I11
I0
I0
I0
tp988
a(I-1
I0
I0
I0
tp989
a(I11
I0
I0
I0
tp990
a(I27
I0
I0
I0
tp991
a(I2
I0
I0
I0
tp992
a(I11
I0
I0
I0
tp993
a(I5
I0
I0
I0
tp994
a(I1
I0
I0
I0
tp995
a(I0
I0
I0
I0
tp996
a(I2
I0
I0
I0
tp997
a(I6
I0
I0
I0
tp998
a(I12
I0
I0
I0
tp999
a(I24
I0
I0
I0
tp1000
a(I26
I0
I0
I0
tp1001
a(I-1
I0
I0
I0
tp1002
a(I0
I0
I0
I0
tp1003
a(I27
I0
I0
I0
tp1004
a(I12
I0
I0
I0
tp1005
a(I5
I0
I0
I0
tp1006
a(I6
I0
I0
I0
tp1007
a(I11
I0
I0
I0
tp1008
a(I0
I0
I0
I0
tp1009
a(I6
I0
I0
I0
tp1010
a(I12
I0
I0
I0
tp1011
a(I12
I0
I0
I0
tp1012
a(I-1
I0
I0
I0
tp1013
a(I28
I0
I0
I0
tp1014
a(I12
I0
I0
I0
tp1015
a(I24
I0
I0
I0
tp1016
a(I2
I1
I1
I1
tp1017
a(I29
I0
I0
I0
tp1018
a(I11
I0
I0
I0
tp1019
a(I0
I0
I0
I0
tp1020
a(I2
I0
I0
I0
tp1021
a(I6
I0
I0
I0
tp1022
a(I11
I0
I0
I0
tp1023
a(I5
I0
I0
I0
tp1024
a(I2
I0
I0
I0
tp1025
a(I11
I0
I0
I0
tp1026
a(I-1
I0
I0
I0
tp1027
a(I32
I0
I0
I0
tp1028
a(I27
I0
I0
I0
tp1029
a(I19
I0
I0
I0
tp1030
a(I19
I0
I0
I0
tp1031
a(I29
I0
I0
I0
tp1032
a(I5
I0
I0
I0
tp1033
a(I12
I0
I0
I0
tp1034
a(I-1
I0
I0
I0
tp1035
a(I11
I0
I0
I0
tp1036
a(I11
I0
I0
I0
tp1037
a(I11
I0
I0
I0
tp1038
a(I11
I0
I0
I0
tp1039
a(I31
I0
I0
I0
tp1040
a(I19
I0
I0
I0
tp1041
a(I29
I0
I0
I0
tp1042
a(I24
I0
I0
I0
tp1043
a(I28
I0
I0
I0
tp1044
a(I28
I0
I0
I0
tp1045
a(I11
I0
I0
I0
tp1046
a(I5
I0
I0
I0
tp1047
a(I2
I1
I1
I1
tp1048
a(I11
I0
I0
I0
tp1049
a(I5
I0
I0
I0
tp1050
a(I2
I1
I1
I1
tp1051
a(I6
I0
I0
I0
tp1052
a(I6
I0
I0
I0
tp1053
a(I11
I0
I0
I0
tp1054
a(I12
I0
I0
I0
tp1055
a(I-1
I0
I0
I0
tp1056
a(I2
I1
I1
I1
tp1057
a(I6
I0
I0
I0
tp1058
a(I12
I0
I0
I0
tp1059
a(I-1
I0
I0
I0
tp1060
a(I29
I0
I0
I0
tp1061
a(I28
I0
I0
I0
tp1062
a(I12
I0
I0
I0
tp1063
a(I-1
I0
I0
I0
tp1064
a(I27
I0
I0
I0
tp1065
a(I29
I0
I0
I0
tp1066
a(I5
I0
I0
I0
tp1067
a(I2
I0
I0
I0
tp1068
a(I2
I1
I1
I1
tp1069
a(I11
I1
I1
I1
tp1070
a(I11
I0
I0
I0
tp1071
a(I27
I0
I0
I0
tp1072
a(I11
I0
I0
I0
tp1073
a(I0
I0
I0
I0
tp1074
a(I11
I0
I0
I0
tp1075
a(I11
I0
I0
I0
tp1076
a(I-1
I0
I0
I0
tp1077
a(I11
I0
I0
I0
tp1078
a(I5
I0
I0
I0
tp1079
a(I2
I1
I1
I1
tp1080
a(I11
I1
I1
I1
tp1081
a(I6
I0
I0
I0
tp1082
a(I11
I0
I0
I0
tp1083
a(I5
I0
I0
I0
tp1084
a(I13
I0
I0
I0
tp1085
a(I5
I0
I0
I0
tp1086
a(I13
I0
I0
I0
tp1087
a(I-1
I0
I0
I0
tp1088
a(I2
I0
I0
I0
tp1089
a(I6
I0
I0
I0
tp1090
a(I11
I0
I0
I0
tp1091
a(I28
I0
I0
I0
tp1092
a(I11
I0
I0
I0
tp1093
a(I27
I0
I0
I0
tp1094
a(I5
I0
I0
I0
tp1095
a(I11
I0
I0
I0
tp1096
a(I5
I0
I0
I0
tp1097
a(I2
I1
I1
I1
tp1098
a(I11
I0
I0
I0
tp1099
a(I11
I1
I1
I1
tp1100
a(I11
I0
I0
I0
tp1101
a(I11
I0
I0
I0
tp1102
a(I0
I0
I0
I0
tp1103
a(I2
I1
I1
I1
tp1104
a(I11
I0
I0
I0
tp1105
a(I5
I0
I0
I0
tp1106
a(I2
I1
I1
I1
tp1107
a(I6
I0
I0
I0
tp1108
a(I11
I0
I0
I0
tp1109
a(I11
I0
I0
I0
tp1110
a(I27
I0
I0
I0
tp1111
a(I29
I0
I0
I0
tp1112
a(I29
I0
I0
I0
tp1113
a(I5
I1
I1
I1
tp1114
a(I11
I0
I0
I0
tp1115
a(I-1
I0
I0
I0
tp1116
a(I5
I0
I0
I0
tp1117
a(I2
I1
I1
I1
tp1118
a(I11
I0
I0
I0
tp1119
a(I11
I0
I0
I0
tp1120
a(I-1
I0
I0
I0
tp1121
a(I5
I0
I0
I0
tp1122
a(I17
I0
I0
I0
tp1123
a(I27
I1
I1
I0
tp1124
a(I19
I0
I0
I0
tp1125
a(I26
I0
I0
I0
tp1126
a(I5
I0
I0
I0
tp1127
a(I2
I0
I0
I0
tp1128
a(I12
I0
I0
I0
tp1129
a(I27
I0
I0
I0
tp1130
a(I5
I0
I0
I0
tp1131
a(I2
I1
I1
I1
tp1132
a(I11
I0
I0
I0
tp1133
a(I12
I0
I0
I0
tp1134
a(I-1
I0
I0
I0
tp1135
a(I27
I0
I0
I0
tp1136
a(I6
I0
I0
I0
tp1137
a(I29
I0
I0
I0
tp1138
a(I19
I0
I0
I0
tp1139
a(I-1
I0
I0
I0
tp1140
a(I17
I0
I0
I0
tp1141
a(I10
I0
I0
I0
tp1142
a(I26
I0
I0
I0
tp1143
a(I27
I0
I0
I0
tp1144
a(I2
I0
I0
I0
tp1145
a(I-1
I0
I0
I0
tp1146
a(I26
I0
I0
I0
tp1147
a(lp1148
(I11
I1
I1
I1
tp1149
a(I11
I0
I0
I0
tp1150
a(I31
I0
I0
I0
tp1151
a(I2
I0
I0
I0
tp1152
a(I11
I0
I0
I0
tp1153
a(I5
I1
I1
I1
tp1154
a(I6
I0
I0
I0
tp1155
a(I12
I0
I0
I0
tp1156
a(I-1
I0
I0
I0
tp1157
a(I5
I0
I0
I0
tp1158
a(I1
I0
I0
I0
tp1159
a(I11
I0
I0
I0
tp1160
a(I5
I1
I1
I1
tp1161
a(I6
I0
I0
I0
tp1162
a(I12
I0
I0
I0
tp1163
a(I0
I0
I0
I0
tp1164
a(I1
I0
I0
I0
tp1165
a(I11
I0
I0
I0
tp1166
a(I5
I1
I1
I1
tp1167
a(I12
I0
I0
I0
tp1168
a(I30
I0
I0
I0
tp1169
a(I2
I0
I0
I0
tp1170
a(I11
I0
I0
I0
tp1171
a(I6
I0
I0
I0
tp1172
a(I5
I0
I0
I0
tp1173
a(I18
I0
I0
I0
tp1174
a(I11
I0
I0
I0
tp1175
a(I12
I0
I0
I0
tp1176
a(I-1
I0
I0
I0
tp1177
a(I28
I0
I0
I0
tp1178
a(I6
I0
I0
I0
tp1179
a(I12
I0
I0
I0
tp1180
a(I-1
I0
I0
I0
tp1181
a(I11
I0
I0
I0
tp1182
a(I-1
I0
I0
I0
tp1183
a(I11
I0
I0
I0
tp1184
a(I0
I0
I0
I0
tp1185
a(I11
I0
I0
I0
tp1186
a(I-1
I0
I0
I0
tp1187
a(I11
I1
I1
I1
tp1188
a(I11
I1
I1
I1
tp1189
a(I31
I0
I0
I0
tp1190
a(I35
I0
I0
I0
tp1191
a(I12
I0
I0
I1
tp1192
a(I27
I0
I0
I0
tp1193
a(I5
I0
I0
I0
tp1194
a(I2
I1
I1
I1
tp1195
a(I11
I0
I0
I0
tp1196
a(I5
I0
I0
I0
tp1197
a(I12
I0
I0
I0
tp1198
a(I30
I0
I0
I0
tp1199
a(I29
I0
I0
I0
tp1200
a(I5
I0
I0
I0
tp1201
a(I11
I0
I0
I0
tp1202
a(I24
I0
I0
I0
tp1203
a(I6
I0
I0
I0
tp1204
a(I12
I0
I0
I0
tp1205
a(I-1
I0
I0
I0
tp1206
a(I19
I0
I0
I0
tp1207
a(I28
I0
I0
I0
tp1208
a(I17
I0
I0
I0
tp1209
a(I-1
I0
I0
I0
tp1210
a(I12
I0
I0
I1
tp1211
a(I30
I0
I0
I0
tp1212
a(I1
I0
I0
I0
tp1213
a(I5
I1
I1
I1
tp1214
a(I2
I1
I1
I1
tp1215
a(I12
I0
I0
I0
tp1216
a(I5
I1
I1
I1
tp1217
a(I11
I0
I0
I0
tp1218
a(I11
I0
I0
I0
tp1219
a(I-1
I0
I0
I0
tp1220
a(I0
I0
I0
I0
tp1221
a(I2
I0
I0
I0
tp1222
a(I12
I0
I0
I1
tp1223
a(I30
I0
I0
I0
tp1224
a(I6
I0
I0
I0
tp1225
a(I6
I0
I0
I0
tp1226
a(I12
I0
I0
I0
tp1227
a(I0
I0
I0
I0
tp1228
a(I11
I0
I0
I0
tp1229
a(I24
I0
I0
I0
tp1230
a(I26
I0
I0
I0
tp1231
a(I11
I0
I0
I0
tp1232
a(I-1
I0
I0
I0
tp1233
a(lp1234
(I28
I0
I0
I0
tp1235
a(I24
I0
I0
I0
tp1236
a(I2
I1
I1
I1
tp1237
a(I12
I0
I0
I0
tp1238
a(I-1
I0
I0
I0
tp1239
a(I19
I0
I0
I0
tp1240
a(I5
I0
I0
I0
tp1241
a(I2
I1
I1
I1
tp1242
a(I11
I0
I0
I0
tp1243
a(I5
I1
I1
I1
tp1244
a(I2
I1
I1
I1
tp1245
a(I11
I0
I0
I0
tp1246
a(I-1
I0
I0
I0
tp1247
a(I2
I1
I1
I1
tp1248
a(I6
I0
I0
I0
tp1249
a(I11
I0
I0
I0
tp1250
a(I11
I1
I1
I1
tp1251
a(I27
I1
I1
I0
tp1252
a(I29
I0
I0
I0
tp1253
a(I-1
I0
I0
I0
tp1254
a(I2
I0
I0
I0
tp1255
a(I11
I0
I0
I0
tp1256
a(I29
I0
I0
I0
tp1257
a(I11
I0
I0
I0
tp1258
a(I-1
I0
I0
I0
tp1259
a(I11
I0
I0
I0
tp1260
a(I-1
I0
I0
I0
tp1261
a(I11
I0
I0
I0
tp1262
a(I-1
I0
I0
I0
tp1263
a(I27
I0
I0
I0
tp1264
a(I-1
I0
I0
I0
tp1265
a(I2
I1
I1
I1
tp1266
a(I11
I1
I1
I1
tp1267
a(I5
I1
I1
I1
tp1268
a(I2
I1
I1
I1
tp1269
a(I11
I1
I1
I1
tp1270
a(I27
I1
I1
I0
tp1271
a(I24
I0
I0
I0
tp1272
a(I26
I0
I0
I0
tp1273
a(I2
I1
I1
I1
tp1274
a(I11
I0
I0
I0
tp1275
a(I16
I0
I0
I0
tp1276
a(I12
I0
I0
I0
tp1277
a(I-1
I0
I0
I0
tp1278
a(I11
I0
I0
I0
tp1279
a(I27
I0
I0
I0
tp1280
a(I2
I1
I1
I1
tp1281
a(I11
I0
I0
I0
tp1282
a(I-1
I0
I0
I0
tp1283
a(I11
I0
I0
I0
tp1284
a(I-1
I0
I0
I0
tp1285
a(I2
I1
I1
I1
tp1286
a(I11
I0
I0
I0
tp1287
a(I16
I0
I0
I0
tp1288
a(I6
I0
I0
I0
tp1289
a(I11
I0
I0
I0
tp1290
a(I-1
I0
I0
I0
tp1291
a(I27
I1
I1
I0
tp1292
a(I29
I0
I0
I0
tp1293
a(I5
I0
I0
I0
tp1294
a(I24
I0
I0
I0
tp1295
a(I26
I0
I0
I0
tp1296
a(I2
I1
I1
I1
tp1297
a(I11
I0
I0
I0
tp1298
a(I-1
I0
I0
I0
tp1299
a(I2
I0
I0
I0
tp1300
a(I27
I0
I0
I0
tp1301
a(I2
I1
I1
I1
tp1302
a(I11
I0
I0
I0
tp1303
a(I5
I1
I1
I1
tp1304
a(I2
I1
I1
I1
tp1305
a(I11
I0
I0
I0
tp1306
a(I-1
I0
I0
I0
tp1307
a(I19
I0
I0
I0
tp1308
a(I-1
I0
I0
I0
tp1309
a(I2
I0
I0
I0
tp1310
a(I11
I0
I0
I0
tp1311
a(I27
I1
I1
I0
tp1312
a(I19
I0
I0
I0
tp1313
a(I29
I0
I0
I0
tp1314
a(I19
I0
I0
I0
tp1315
a(I5
I0
I0
I0
tp1316
a(I11
I0
I0
I0
tp1317
a(I5
I1
I1
I1
tp1318
a(I11
I0
I0
I0
tp1319
a(I-1
I0
I0
I0
tp1320
a(I0
I0
I0
I0
tp1321
a(I27
I1
I1
I0
tp1322
a(I29
I0
I0
I0
tp1323
a(I24
I0
I0
I0
tp1324
a(I26
I0
I0
I0
tp1325
a(I5
I0
I0
I0
tp1326
a(I2
I1
I1
I1
tp1327
a(I6
I0
I0
I0
tp1328
a(I11
I0
I0
I0
tp1329
a(I11
I0
I0
I0
tp1330
a(I-1
I0
I0
I0
tp1331
a(I0
I0
I0
I0
tp1332
a(I2
I1
I1
I1
tp1333
a(I11
I0
I0
I0
tp1334
a(I0
I0
I0
I0
tp1335
a(I2
I1
I1
I1
tp1336
a(I11
I0
I0
I0
tp1337
a(I5
I1
I1
I1
tp1338
a(I2
I0
I0
I0
tp1339
a(I11
I0
I0
I0
tp1340
a(I11
I0
I0
I0
tp1341
a(I30
I0
I0
I0
tp1342
a(I2
I0
I0
I0
tp1343
a(I6
I0
I0
I0
tp1344
a(I11
I0
I0
I0
tp1345
a(I5
I1
I1
I1
tp1346
a(I12
I0
I0
I0
tp1347
a(I28
I0
I0
I0
tp1348
a(I12
I0
I0
I0
tp1349
a(I5
I0
I0
I0
tp1350
a(I2
I1
I1
I1
tp1351
a(I11
I0
I0
I0
tp1352
a(I-1
I0
I0
I0
tp1353
a(I12
I0
I0
I0
tp1354
a(I5
I0
I0
I0
tp1355
a(I6
I0
I0
I0
tp1356
a(I12
I0
I0
I0
tp1357
a(I-1
I0
I0
I0
tp1358
a(I6
I0
I0
I0
tp1359
a(I0
I0
I0
I0
tp1360
a(I6
I0
I0
I0
tp1361
a(I11
I0
I0
I0
tp1362
a(I-1
I0
I0
I0
tp1363
a(I12
I0
I0
I0
tp1364
a(I5
I1
I1
I1
tp1365
a(I2
I1
I1
I1
tp1366
a(I11
I0
I0
I0
tp1367
a(I11
I0
I0
I0
tp1368
a(I16
I0
I0
I0
tp1369
a(I6
I0
I0
I0
tp1370
a(I12
I0
I0
I0
tp1371
a(I-1
I0
I0
I0
tp1372
a(I0
I0
I0
I0
tp1373
a(I6
I0
I0
I0
tp1374
a(I6
I0
I0
I0
tp1375
a(I12
I0
I0
I0
tp1376
a(I-1
I0
I0
I0
tp1377
a(lp1378
(I17
I0
I0
I0
tp1379
a(I31
I1
I1
I0
tp1380
a(I6
I0
I0
I0
tp1381
a(I24
I0
I0
I0
tp1382
a(I26
I0
I0
I0
tp1383
a(I11
I0
I0
I0
tp1384
a(I5
I0
I0
I1
tp1385
a(I2
I0
I0
I0
tp1386
a(I11
I1
I1
I1
tp1387
a(I0
I1
I1
I1
tp1388
a(I11
I1
I1
I1
tp1389
a(I-1
I0
I0
I0
tp1390
a(I2
I0
I0
I0
tp1391
a(I11
I0
I0
I0
tp1392
a(I5
I0
I0
I0
tp1393
a(I12
I0
I0
I0
tp1394
a(I-1
I0
I0
I0
tp1395
a(I11
I0
I0
I0
tp1396
a(I-1
I0
I0
I0
tp1397
a(I11
I0
I0
I0
tp1398
a(I-1
I0
I0
I0
tp1399
a(I31
I1
I1
I0
tp1400
a(I29
I0
I0
I0
tp1401
a(I11
I1
I1
I1
tp1402
a(I-1
I0
I0
I0
tp1403
a(I0
I0
I0
I0
tp1404
a(I2
I0
I0
I0
tp1405
a(I11
I0
I0
I0
tp1406
a(I5
I0
I0
I0
tp1407
a(I12
I0
I0
I0
tp1408
a(I-1
I0
I0
I0
tp1409
a(I19
I0
I0
I0
tp1410
a(I29
I0
I0
I0
tp1411
a(I12
I0
I0
I0
tp1412
a(I-1
I0
I0
I0
tp1413
a(I11
I0
I0
I0
tp1414
a(I-1
I0
I0
I0
tp1415
a(I11
I0
I0
I0
tp1416
a(I-1
I0
I0
I0
tp1417
a(I31
I1
I1
I0
tp1418
a(I29
I0
I0
I0
tp1419
a(I11
I1
I1
I1
tp1420
a(I-1
I0
I0
I0
tp1421
a(I2
I0
I0
I0
tp1422
a(I12
I0
I0
I0
tp1423
a(I30
I0
I0
I0
tp1424
a(I2
I1
I1
I1
tp1425
a(I11
I0
I0
I0
tp1426
a(I6
I0
I0
I0
tp1427
a(I-1
I0
I0
I0
tp1428
a(I5
I0
I0
I1
tp1429
a(I12
I0
I0
I1
tp1430
a(I30
I0
I0
I0
tp1431
a(I19
I0
I0
I0
tp1432
a(I19
I0
I0
I0
tp1433
a(I19
I0
I0
I0
tp1434
a(I-1
I0
I0
I0
tp1435
a(I0
I0
I0
I0
tp1436
a(I12
I0
I0
I1
tp1437
a(I30
I0
I0
I0
tp1438
a(I19
I0
I0
I0
tp1439
a(I19
I0
I0
I0
tp1440
a(I6
I0
I0
I0
tp1441
a(I-1
I0
I0
I0
tp1442
a(I2
I0
I0
I0
tp1443
a(I6
I0
I0
I0
tp1444
a(I11
I1
I1
I1
tp1445
a(I-1
I0
I0
I0
tp1446
a(I2
I1
I1
I1
tp1447
a(I11
I1
I1
I1
tp1448
a(I-1
I0
I0
I0
tp1449
a(I31
I1
I1
I0
tp1450
a(I19
I0
I0
I0
tp1451
a(I7
I0
I0
I0
tp1452
a(I5
I0
I0
I0
tp1453
a(I2
I0
I0
I0
tp1454
a(I6
I0
I0
I0
tp1455
a(I11
I1
I1
I1
tp1456
a(I-1
I0
I0
I0
tp1457
a(I19
I0
I0
I0
tp1458
a(I-1
I0
I0
I0
tp1459
a(I2
I0
I0
I0
tp1460
a(I12
I0
I0
I1
tp1461
a(I-1
I0
I0
I0
tp1462
a(I11
I0
I0
I0
tp1463
a(I-1
I0
I0
I0
tp1464
a(I11
I0
I0
I0
tp1465
a(I-1
I0
I0
I0
tp1466
a(I30
I0
I0
I0
tp1467
a(I7
I0
I0
I0
tp1468
a(I5
I0
I0
I0
tp1469
a(I6
I0
I0
I0
tp1470
a(I12
I0
I0
I1
tp1471
a(I-1
I0
I0
I0
tp1472
a(lp1473
(I11
I0
I0
I0
tp1474
a(I-1
I0
I0
I0
tp1475
a(I1
I0
I0
I0
tp1476
a(I11
I0
I0
I0
tp1477
a(I-1
I0
I0
I0
tp1478
a(I-1
I0
I0
I0
tp1479
a(I19
I0
I0
I0
tp1480
a(I11
I0
I0
I0
tp1481
a(I-1
I0
I0
I0
tp1482
a(I1
I0
I0
I0
tp1483
a(I11
I0
I0
I0
tp1484
a(I-1
I0
I0
I0
tp1485
a(I-1
I0
I0
I0
tp1486
a(I27
I0
I0
I0
tp1487
a(I2
I0
I0
I0
tp1488
a(I21
I0
I0
I0
tp1489
a(I19
I0
I0
I0
tp1490
a(I29
I0
I0
I0
tp1491
a(I11
I0
I0
I0
tp1492
a(I5
I0
I0
I0
tp1493
a(I6
I1
I1
I1
tp1494
a(I11
I0
I0
I0
tp1495
a(I5
I0
I0
I0
tp1496
a(I5
I1
I1
I1
tp1497
a(I1
I0
I0
I0
tp1498
a(I-1
I0
I0
I0
tp1499
a(I29
I0
I0
I0
tp1500
a(I5
I0
I0
I0
tp1501
a(I11
I0
I0
I0
tp1502
a(I-1
I0
I0
I0
tp1503
a(I5
I0
I0
I0
tp1504
a(I19
I0
I0
I0
tp1505
a(I1
I0
I0
I0
tp1506
a(I1
I0
I0
I0
tp1507
a(I12
I0
I0
I0
tp1508
a(I5
I0
I0
I0
tp1509
a(I6
I1
I1
I1
tp1510
a(I11
I0
I0
I0
tp1511
a(I11
I0
I0
I0
tp1512
a(I-1
I0
I0
I0
tp1513
a(I5
I0
I0
I0
tp1514
a(I2
I0
I0
I0
tp1515
a(I11
I0
I0
I0
tp1516
a(I5
I0
I0
I0
tp1517
a(I11
I0
I0
I0
tp1518
a(I-1
I0
I0
I0
tp1519
a(I6
I0
I0
I0
tp1520
a(I12
I0
I0
I0
tp1521
a(I30
I0
I0
I0
tp1522
a(I5
I0
I0
I0
tp1523
a(I6
I1
I1
I1
tp1524
a(I11
I0
I0
I0
tp1525
a(I11
I0
I0
I0
tp1526
a(I-1
I0
I0
I0
tp1527
a(I5
I0
I0
I0
tp1528
a(I6
I0
I0
I0
tp1529
a(I12
I0
I0
I0
tp1530
a(I28
I0
I0
I0
tp1531
a(I5
I0
I0
I0
tp1532
a(I1
I0
I0
I0
tp1533
a(I0
I0
I0
I0
tp1534
a(I1
I0
I0
I0
tp1535
a(I12
I0
I0
I0
tp1536
a(I0
I0
I0
I0
tp1537
a(I28
I0
I0
I0
tp1538
a(I1
I0
I0
I0
tp1539
a(I11
I0
I0
I0
tp1540
a(I5
I1
I1
I1
tp1541
a(I2
I0
I0
I0
tp1542
a(I11
I0
I0
I0
tp1543
a(I16
I0
I0
I0
tp1544
a(I6
I0
I0
I0
tp1545
a(I11
I0
I0
I0
tp1546
a(I-1
I0
I0
I0
tp1547
a(I29
I0
I0
I0
tp1548
a(I5
I0
I0
I0
tp1549
a(I11
I0
I0
I0
tp1550
a(I-1
I0
I0
I0
tp1551
a(I11
I0
I0
I0
tp1552
a(I-1
I0
I0
I0
tp1553
a(I0
I0
I0
I0
tp1554
a(I2
I0
I0
I0
tp1555
a(I11
I0
I0
I0
tp1556
a(I5
I1
I1
I1
tp1557
a(I6
I0
I0
I0
tp1558
a(I12
I0
I0
I0
tp1559
a(I-1
I0
I0
I0
tp1560
a(I19
I0
I0
I0
tp1561
a(I19
I0
I0
I0
tp1562
a(I5
I0
I0
I0
tp1563
a(I11
I0
I0
I0
tp1564
a(I-1
I0
I0
I0
tp1565
a(I5
I0
I0
I0
tp1566
a(I1
I0
I0
I0
tp1567
a(I-1
I0
I0
I0
tp1568
a(I1
I0
I0
I0
tp1569
a(I11
I0
I0
I0
tp1570
a(I6
I0
I0
I0
tp1571
a(I5
I0
I0
I0
tp1572
a(I2
I0
I0
I0
tp1573
a(I29
I0
I0
I0
tp1574
a(I6
I0
I0
I0
tp1575
a(I11
I0
I0
I0
tp1576
a(I-1
I0
I0
I0
tp1577
a(lp1578
(I5
I0
I0
I0
tp1579
a(I1
I0
I0
I0
tp1580
a(I-1
I0
I0
I0
tp1581
a(I4
I1
I1
I1
tp1582
a(I11
I1
I1
I1
tp1583
a(I27
I0
I0
I0
tp1584
a(I29
I0
I0
I0
tp1585
a(I24
I0
I0
I0
tp1586
a(I26
I0
I0
I0
tp1587
a(I5
I0
I0
I0
tp1588
a(I11
I0
I0
I0
tp1589
a(I5
I0
I0
I0
tp1590
a(I18
I1
I1
I1
tp1591
a(I11
I0
I0
I0
tp1592
a(I-1
I0
I0
I0
tp1593
a(I6
I0
I0
I0
tp1594
a(I11
I1
I1
I1
tp1595
a(I11
I0
I0
I0
tp1596
a(I-1
I0
I0
I0
tp1597
a(I0
I0
I0
I0
tp1598
a(I27
I0
I0
I0
tp1599
a(I2
I0
I0
I0
tp1600
a(I6
I0
I0
I0
tp1601
a(I11
I0
I0
I0
tp1602
a(I-1
I0
I0
I0
tp1603
a(I2
I0
I0
I0
tp1604
a(I6
I0
I0
I0
tp1605
a(I11
I0
I0
I0
tp1606
a(I11
I0
I0
I0
tp1607
a(I32
I0
I0
I0
tp1608
a(I10
I0
I0
I0
tp1609
a(I6
I0
I0
I0
tp1610
a(I5
I0
I0
I0
tp1611
a(I2
I0
I0
I0
tp1612
a(I11
I0
I0
I0
tp1613
a(I5
I0
I0
I0
tp1614
a(I2
I0
I0
I0
tp1615
a(I6
I0
I0
I0
tp1616
a(I11
I0
I0
I0
tp1617
a(I-1
I0
I0
I0
tp1618
a(I2
I0
I0
I0
tp1619
a(I11
I0
I0
I0
tp1620
a(I5
I0
I0
I0
tp1621
a(I19
I0
I0
I0
tp1622
a(I6
I0
I0
I0
tp1623
a(I6
I0
I0
I0
tp1624
a(I12
I0
I0
I0
tp1625
a(I5
I0
I0
I0
tp1626
a(I2
I0
I0
I0
tp1627
a(I11
I0
I0
I0
tp1628
a(I19
I0
I0
I0
tp1629
a(I29
I0
I0
I0
tp1630
a(I5
I0
I0
I0
tp1631
a(I2
I0
I0
I0
tp1632
a(I6
I0
I0
I0
tp1633
a(I11
I0
I0
I0
tp1634
a(I5
I0
I0
I0
tp1635
a(I1
I0
I0
I0
tp1636
a(I11
I0
I0
I0
tp1637
a(I12
I0
I0
I0
tp1638
a(I5
I0
I0
I0
tp1639
a(I2
I0
I0
I0
tp1640
a(I11
I0
I0
I0
tp1641
a(I-1
I0
I0
I0
tp1642
a(I2
I0
I0
I0
tp1643
a(I11
I0
I0
I0
tp1644
a(I12
I0
I0
I0
tp1645
a(I16
I0
I0
I0
tp1646
a(I11
I0
I0
I0
tp1647
a(I-1
I0
I0
I0
tp1648
a(I0
I0
I0
I0
tp1649
a(I2
I0
I0
I0
tp1650
a(I11
I0
I0
I0
tp1651
a(I5
I0
I0
I0
tp1652
a(I11
I0
I0
I0
tp1653
a(I-1
I0
I0
I0
tp1654
a(I5
I0
I0
I0
tp1655
a(I2
I0
I0
I0
tp1656
a(I6
I0
I0
I0
tp1657
a(I11
I0
I0
I0
tp1658
a(I27
I0
I0
I0
tp1659
a(I24
I0
I0
I0
tp1660
a(I26
I0
I0
I0
tp1661
a(I2
I0
I0
I0
tp1662
a(I6
I0
I0
I0
tp1663
a(I6
I0
I0
I0
tp1664
a(I11
I0
I0
I0
tp1665
a(I-1
I0
I0
I0
tp1666
a(I2
I0
I0
I0
tp1667
a(I11
I0
I0
I0
tp1668
a(I11
I0
I0
I0
tp1669
a(I5
I0
I0
I0
tp1670
a(I1
I0
I0
I0
tp1671
a(I27
I0
I0
I0
tp1672
a(I29
I0
I0
I0
tp1673
a(I-1
I0
I0
I0
tp1674
a(I32
I0
I0
I0
tp1675
a(I19
I0
I0
I0
tp1676
a(I27
I0
I0
I0
tp1677
a(I5
I0
I0
I0
tp1678
a(I2
I0
I0
I0
tp1679
a(I11
I0
I0
I0
tp1680
a(I5
I0
I0
I0
tp1681
a(I2
I0
I0
I0
tp1682
a(I6
I0
I0
I0
tp1683
a(I12
I0
I0
I0
tp1684
a(I-1
I0
I0
I0
tp1685
a(I0
I0
I0
I0
tp1686
a(I2
I0
I0
I0
tp1687
a(I11
I0
I0
I0
tp1688
a(I5
I0
I0
I0
tp1689
a(I2
I0
I0
I0
tp1690
a(I12
I0
I0
I0
tp1691
a(I-1
I0
I0
I0
tp1692
a(lp1693
(I2
I0
I0
I0
tp1694
a(I11
I0
I0
I0
tp1695
a(I11
I0
I0
I0
tp1696
a(I11
I0
I0
I0
tp1697
a(I6
I0
I0
I0
tp1698
a(I11
I0
I0
I0
tp1699
a(I31
I1
I1
I0
tp1700
a(I29
I0
I0
I0
tp1701
a(I5
I0
I0
I0
tp1702
a(I1
I0
I0
I0
tp1703
a(I6
I0
I0
I0
tp1704
a(I11
I0
I0
I0
tp1705
a(I11
I1
I1
I1
tp1706
a(I0
I0
I0
I0
tp1707
a(I1
I0
I0
I0
tp1708
a(I6
I0
I0
I0
tp1709
a(I11
I1
I1
I1
tp1710
a(I12
I0
I0
I1
tp1711
a(I-1
I0
I0
I0
tp1712
a(I11
I0
I0
I0
tp1713
a(I-1
I0
I0
I0
tp1714
a(I11
I0
I0
I0
tp1715
a(I-1
I0
I0
I0
tp1716
a(I31
I1
I1
I0
tp1717
a(I2
I0
I0
I0
tp1718
a(I6
I0
I0
I0
tp1719
a(I11
I0
I0
I0
tp1720
a(I11
I1
I1
I1
tp1721
a(I0
I0
I0
I0
tp1722
a(I31
I1
I1
I0
tp1723
a(I2
I0
I0
I0
tp1724
a(I6
I0
I0
I0
tp1725
a(I6
I0
I0
I0
tp1726
a(I11
I0
I0
I0
tp1727
a(I11
I1
I1
I1
tp1728
a(I5
I0
I0
I0
tp1729
a(I2
I0
I0
I0
tp1730
a(I6
I0
I0
I0
tp1731
a(I12
I0
I0
I0
tp1732
a(I-1
I0
I0
I0
tp1733
a(I30
I0
I0
I0
tp1734
a(I6
I0
I0
I0
tp1735
a(I11
I1
I1
I1
tp1736
a(I31
I1
I1
I0
tp1737
a(I6
I0
I0
I0
tp1738
a(I0
I0
I0
I0
tp1739
a(I31
I0
I0
I0
tp1740
a(I1
I0
I0
I0
tp1741
a(I6
I0
I0
I0
tp1742
a(I11
I0
I0
I0
tp1743
a(I12
I0
I0
I1
tp1744
a(I-1
I0
I0
I0
tp1745
a(I11
I1
I1
I1
tp1746
a(I-1
I0
I0
I0
tp1747
a(I6
I1
I1
I1
tp1748
a(I11
I0
I0
I0
tp1749
a(I-1
I0
I0
I0
tp1750
a(I0
I0
I0
I0
tp1751
a(I-1
I0
I0
I0
tp1752
a(I-1
I0
I0
I0
tp1753
a(I6
I0
I0
I0
tp1754
a(I1
I0
I0
I0
tp1755
a(I-1
I0
I0
I0
tp1756
a(I-1
I0
I0
I0
tp1757
a(I11
I1
I1
I1
tp1758
a(I31
I1
I1
I0
tp1759
a(I6
I0
I0
I0
tp1760
a(I11
I1
I1
I1
tp1761
a(I0
I0
I0
I0
tp1762
a(I11
I0
I0
I0
tp1763
a(I31
I1
I1
I0
tp1764
a(I2
I0
I0
I0
tp1765
a(I6
I0
I0
I0
tp1766
a(I11
I0
I0
I0
tp1767
a(I11
I1
I1
I1
tp1768
a(I-1
I0
I0
I0
tp1769
a(I2
I0
I0
I0
tp1770
a(I11
I0
I0
I0
tp1771
a(I5
I1
I1
I1
tp1772
a(I11
I0
I0
I0
tp1773
a(I11
I0
I0
I0
tp1774
a(I31
I0
I0
I0
tp1775
a(I0
I0
I0
I0
tp1776
a(I31
I0
I0
I0
tp1777
a(I28
I0
I0
I0
tp1778
a(I12
I0
I0
I0
tp1779
a(I24
I0
I0
I0
tp1780
a(I26
I0
I0
I0
tp1781
a(I-1
I0
I0
I0
tp1782
a(I26
I1
I1
I1
tp1783
a(I-1
I0
I0
I0
tp1784
a(I0
I0
I0
I0
tp1785
a(I11
I0
I0
I0
tp1786
a(I-1
I0
I0
I0
tp1787
a(I2
I0
I0
I0
tp1788
a(I12
I0
I0
I1
tp1789
a(I30
I0
I0
I0
tp1790
a(I5
I0
I0
I0
tp1791
a(I2
I0
I0
I0
tp1792
a(I11
I0
I0
I0
tp1793
a(I11
I0
I0
I0
tp1794
a(I5
I0
I0
I0
tp1795
a(I6
I0
I0
I0
tp1796
a(I11
I0
I0
I0
tp1797
a(I-1
I0
I0
I0
tp1798
a(I29
I0
I0
I0
tp1799
a(I5
I0
I0
I0
tp1800
a(I2
I0
I0
I0
tp1801
a(I11
I0
I0
I0
tp1802
a(I5
I1
I1
I1
tp1803
a(I2
I0
I0
I0
tp1804
a(I11
I0
I0
I0
tp1805
a(I5
I1
I1
I1
tp1806
a(I11
I0
I0
I0
tp1807
a(I-1
I0
I0
I0
tp1808
a(lp1809
(I11
I1
I1
I1
tp1810
a(I12
I1
I1
I0
tp1811
a(I30
I1
I1
I1
tp1812
a(I12
I1
I1
I0
tp1813
a(I5
I1
I1
I1
tp1814
a(I28
I0
I0
I0
tp1815
a(I5
I0
I0
I0
tp1816
a(I2
I0
I0
I0
tp1817
a(I11
I0
I0
I0
tp1818
a(I-1
I0
I0
I0
tp1819
a(I2
I0
I0
I0
tp1820
a(I21
I0
I0
I0
tp1821
a(I6
I0
I0
I0
tp1822
a(I11
I0
I0
I0
tp1823
a(I31
I0
I0
I0
tp1824
a(I24
I0
I0
I0
tp1825
a(I26
I0
I0
I0
tp1826
a(I1
I0
I0
I0
tp1827
a(I12
I0
I0
I0
tp1828
a(I32
I0
I0
I0
tp1829
a(I30
I0
I0
I0
tp1830
a(I5
I0
I0
I0
tp1831
a(I2
I0
I0
I0
tp1832
a(I11
I0
I0
I0
tp1833
a(I-1
I0
I0
I0
tp1834
a(I0
I0
I0
I0
tp1835
a(I11
I0
I0
I0
tp1836
a(I6
I0
I0
I0
tp1837
a(I19
I0
I0
I0
tp1838
a(I-1
I0
I0
I0
tp1839
a(I5
I0
I0
I0
tp1840
a(I2
I0
I0
I0
tp1841
a(I11
I0
I0
I0
tp1842
a(I11
I0
I0
I0
tp1843
a(I11
I0
I0
I0
tp1844
a(I-1
I0
I0
I0
tp1845
a(I19
I0
I0
I0
tp1846
a(I28
I0
I0
I0
tp1847
a(I11
I0
I0
I0
tp1848
a(I12
I0
I0
I0
tp1849
a(I5
I0
I0
I0
tp1850
a(I6
I0
I0
I0
tp1851
a(I11
I0
I0
I0
tp1852
a(I-1
I0
I0
I0
tp1853
a(I-1
I0
I0
I0
tp1854
a(I2
I0
I0
I0
tp1855
a(I12
I1
I1
I0
tp1856
a(I30
I0
I0
I0
tp1857
a(I5
I0
I0
I0
tp1858
a(I6
I0
I0
I0
tp1859
a(I12
I0
I0
I0
tp1860
a(I19
I0
I0
I0
tp1861
a(I5
I0
I0
I0
tp1862
a(I5
I0
I0
I0
tp1863
a(I6
I0
I0
I0
tp1864
a(I-1
I0
I0
I0
tp1865
a(I17
I0
I0
I0
tp1866
a(I30
I0
I0
I0
tp1867
a(I29
I0
I0
I0
tp1868
a(I5
I0
I0
I0
tp1869
a(I1
I0
I0
I0
tp1870
a(I2
I0
I0
I0
tp1871
a(I-1
I0
I0
I0
tp1872
a(I0
I0
I0
I0
tp1873
a(I5
I0
I0
I0
tp1874
a(I29
I0
I0
I0
tp1875
a(I-1
I0
I0
I0
tp1876
a(I17
I0
I0
I0
tp1877
a(I30
I0
I0
I0
tp1878
a(I28
I0
I0
I0
tp1879
a(I12
I0
I0
I0
tp1880
a(I5
I0
I0
I0
tp1881
a(I1
I0
I0
I0
tp1882
a(I11
I0
I0
I0
tp1883
a(I-1
I0
I0
I0
tp1884
a(I2
I0
I0
I0
tp1885
a(I10
I0
I0
I0
tp1886
a(I26
I0
I0
I0
tp1887
a(I29
I0
I0
I0
tp1888
a(I19
I0
I0
I0
tp1889
a(I5
I0
I0
I0
tp1890
a(I1
I0
I0
I0
tp1891
a(I12
I0
I0
I0
tp1892
a(I5
I0
I0
I0
tp1893
a(I6
I0
I0
I0
tp1894
a(I28
I0
I0
I0
tp1895
a(I12
I1
I1
I0
tp1896
a(I30
I0
I0
I0
tp1897
a(I5
I0
I0
I0
tp1898
a(I2
I0
I0
I0
tp1899
a(I11
I0
I0
I0
tp1900
a(I28
I0
I0
I0
tp1901
a(I12
I1
I1
I0
tp1902
a(I29
I0
I0
I0
tp1903
a(I5
I0
I0
I0
tp1904
a(I-1
I0
I0
I0
tp1905
a(I28
I0
I0
I0
tp1906
a(I5
I0
I0
I0
tp1907
a(I2
I0
I0
I0
tp1908
a(I19
I0
I0
I0
tp1909
a(I6
I0
I0
I0
tp1910
a(I11
I1
I1
I1
tp1911
a(I11
I0
I0
I0
tp1912
a(I-1
I0
I0
I0
tp1913
a(I5
I0
I0
I0
tp1914
a(I20
I0
I0
I0
tp1915
a(I6
I0
I0
I0
tp1916
a(I12
I0
I0
I0
tp1917
a(I2
I0
I0
I0
tp1918
a(I11
I1
I1
I1
tp1919
a(I10
I0
I0
I0
tp1920
a(I19
I0
I0
I0
tp1921
a(I26
I0
I0
I0
tp1922
a(I1
I0
I0
I0
tp1923
a(I6
I0
I0
I0
tp1924
a(I13
I0
I0
I0
tp1925
a(I11
I0
I0
I0
tp1926
a(I13
I0
I0
I0
tp1927
a(I11
I0
I0
I0
tp1928
a(I-1
I0
I0
I0
tp1929
a(I2
I0
I0
I0
tp1930
a(I6
I0
I0
I0
tp1931
a(I11
I0
I0
I0
tp1932
a(I11
I0
I0
I0
tp1933
a(I2
I0
I0
I0
tp1934
a(I11
I0
I0
I0
tp1935
a(I5
I0
I0
I0
tp1936
a(I2
I0
I0
I0
tp1937
a(I11
I0
I0
I0
tp1938
a(I32
I0
I0
I0
tp1939
a(I31
I0
I0
I0
tp1940
a(I24
I0
I0
I0
tp1941
a(I2
I0
I0
I0
tp1942
a(I11
I0
I0
I0
tp1943
a(I0
I0
I0
I0
tp1944
a(I6
I0
I0
I0
tp1945
a(I19
I0
I0
I0
tp1946
a(I-1
I0
I0
I0
tp1947
a(I2
I0
I0
I0
tp1948
a(I12
I0
I0
I0
tp1949
a(I30
I0
I0
I0
tp1950
a(I12
I0
I0
I1
tp1951
a(I5
I0
I0
I0
tp1952
a(I2
I0
I0
I0
tp1953
a(I6
I0
I0
I0
tp1954
a(I11
I0
I0
I0
tp1955
a(I5
I0
I0
I0
tp1956
a(I2
I0
I0
I0
tp1957
a(I11
I0
I0
I0
tp1958
a(I11
I0
I0
I0
tp1959
a(I-1
I0
I0
I0
tp1960
a(I0
I0
I0
I0
tp1961
a(I6
I0
I0
I0
tp1962
a(I28
I0
I0
I0
tp1963
a(I12
I1
I1
I0
tp1964
a(I5
I0
I0
I0
tp1965
a(I2
I0
I0
I0
tp1966
a(I11
I0
I0
I0
tp1967
a(I-1
I0
I0
I0
tp1968
a(lp1969
(I2
I1
I1
I1
tp1970
a(I6
I0
I0
I0
tp1971
a(I11
I1
I1
I1
tp1972
a(I-1
I0
I0
I0
tp1973
a(I5
I0
I0
I0
tp1974
a(I11
I0
I0
I0
tp1975
a(I-1
I0
I0
I0
tp1976
a(I29
I0
I0
I1
tp1977
a(I5
I1
I1
I1
tp1978
a(I11
I0
I0
I0
tp1979
a(I28
I0
I0
I0
tp1980
a(I5
I0
I0
I0
tp1981
a(I2
I1
I1
I1
tp1982
a(I11
I0
I0
I0
tp1983
a(I-1
I0
I0
I0
tp1984
a(I19
I0
I0
I0
tp1985
a(I-1
I0
I0
I0
tp1986
a(I2
I1
I1
I1
tp1987
a(I11
I0
I0
I0
tp1988
a(I5
I0
I0
I0
tp1989
a(I6
I0
I0
I0
tp1990
a(I12
I0
I0
I0
tp1991
a(I29
I0
I0
I0
tp1992
a(I5
I0
I0
I0
tp1993
a(I2
I1
I1
I1
tp1994
a(I12
I0
I0
I0
tp1995
a(I-1
I0
I0
I0
tp1996
a(I5
I0
I0
I0
tp1997
a(I2
I1
I1
I1
tp1998
a(I6
I0
I0
I0
tp1999
a(I11
I0
I0
I0
tp2000
a(I5
I0
I0
I0
tp2001
a(I1
I0
I0
I0
tp2002
a(I-1
I0
I0
I0
tp2003
a(I27
I0
I0
I0
tp2004
a(I24
I0
I0
I0
tp2005
a(I11
I0
I0
I0
tp2006
a(I5
I0
I0
I0
tp2007
a(I12
I0
I0
I0
tp2008
a(I24
I0
I0
I0
tp2009
a(I26
I0
I0
I0
tp2010
a(I11
I0
I0
I0
tp2011
a(I11
I0
I0
I0
tp2012
a(I6
I0
I0
I0
tp2013
a(I12
I0
I0
I0
tp2014
a(I-1
I0
I0
I0
tp2015
a(I19
I0
I0
I0
tp2016
a(I19
I0
I0
I0
tp2017
a(I-1
I0
I0
I0
tp2018
a(I28
I0
I0
I0
tp2019
a(I5
I0
I0
I0
tp2020
a(I11
I0
I0
I0
tp2021
a(I29
I0
I0
I0
tp2022
a(I12
I0
I0
I0
tp2023
a(I5
I0
I0
I0
tp2024
a(I6
I0
I0
I0
tp2025
a(I6
I0
I0
I0
tp2026
a(I11
I0
I0
I0
tp2027
a(I5
I0
I0
I0
tp2028
a(I4
I0
I0
I0
tp2029
a(I11
I0
I0
I0
tp2030
a(I24
I0
I0
I0
tp2031
a(I26
I0
I0
I0
tp2032
a(I12
I0
I0
I0
tp2033
a(I-1
I0
I0
I0
tp2034
a(I28
I0
I0
I0
tp2035
a(I18
I0
I0
I0
tp2036
a(I11
I0
I0
I0
tp2037
a(I-1
I0
I0
I0
tp2038
a(I0
I0
I0
I0
tp2039
a(I19
I0
I0
I0
tp2040
a(I29
I0
I0
I1
tp2041
a(I5
I1
I1
I1
tp2042
a(I12
I0
I0
I0
tp2043
a(I5
I0
I0
I0
tp2044
a(I6
I0
I0
I0
tp2045
a(I11
I0
I0
I0
tp2046
a(I5
I0
I0
I0
tp2047
a(I11
I0
I0
I0
tp2048
a(I12
I0
I0
I0
tp2049
a(I-1
I0
I0
I0
tp2050
a(I19
I0
I0
I0
tp2051
a(I-1
I0
I0
I0
tp2052
a(I2
I1
I1
I1
tp2053
a(I6
I0
I0
I0
tp2054
a(I11
I0
I0
I0
tp2055
a(I1
I0
I0
I0
tp2056
a(I11
I0
I0
I0
tp2057
a(I0
I0
I0
I0
tp2058
a(I18
I0
I0
I0
tp2059
a(I11
I0
I0
I0
tp2060
a(I11
I0
I0
I0
tp2061
a(I5
I0
I0
I0
tp2062
a(I2
I0
I0
I0
tp2063
a(I6
I0
I0
I0
tp2064
a(I11
I0
I0
I0
tp2065
a(I-1
I0
I0
I0
tp2066
a(I12
I0
I0
I0
tp2067
a(I32
I0
I0
I0
tp2068
a(I27
I0
I0
I0
tp2069
a(I19
I0
I0
I0
tp2070
a(I29
I0
I0
I0
tp2071
a(I5
I0
I0
I0
tp2072
a(I6
I0
I0
I0
tp2073
a(I1
I0
I0
I0
tp2074
a(I-1
I0
I0
I0
tp2075
a(I8
I0
I0
I0
tp2076
a(I5
I0
I0
I0
tp2077
a(I2
I0
I0
I0
tp2078
a(I-1
I0
I0
I0
tp2079
a(I5
I0
I0
I0
tp2080
a(I2
I1
I1
I1
tp2081
a(I11
I0
I0
I0
tp2082
a(I-1
I0
I0
I0
tp2083
a(I2
I0
I0
I0
tp2084
a(I6
I0
I0
I0
tp2085
a(I17
I1
I1
I0
tp2086
a(I12
I0
I0
I0
tp2087
a(I11
I0
I0
I0
tp2088
a(I27
I0
I0
I0
tp2089
a(I29
I0
I0
I0
tp2090
a(I2
I0
I0
I0
tp2091
a(I11
I0
I0
I0
tp2092
a(I5
I0
I0
I0
tp2093
a(I2
I1
I1
I1
tp2094
a(I6
I0
I0
I0
tp2095
a(I11
I0
I0
I0
tp2096
a(I6
I0
I0
I0
tp2097
a(I11
I0
I0
I0
tp2098
a(I-1
I0
I0
I0
tp2099
a(I29
I0
I0
I0
tp2100
a(I2
I1
I1
I1
tp2101
a(I13
I0
I0
I0
tp2102
a(I11
I0
I0
I0
tp2103
a(I11
I0
I0
I0
tp2104
a(I11
I0
I0
I0
tp2105
a(I5
I0
I0
I0
tp2106
a(I2
I1
I1
I1
tp2107
a(I11
I0
I0
I0
tp2108
a(I-1
I0
I0
I0
tp2109
a(I-1
I0
I0
I0
tp2110
a(I19
I0
I0
I0
tp2111
a(I28
I0
I0
I0
tp2112
a(I5
I0
I0
I0
tp2113
a(I2
I1
I1
I1
tp2114
a(I11
I0
I0
I0
tp2115
a(I5
I0
I0
I0
tp2116
a(I6
I0
I0
I0
tp2117
a(I11
I0
I0
I0
tp2118
a(I-1
I0
I0
I0
tp2119
a(I11
I0
I0
I0
tp2120
a(I-1
I0
I0
I0
tp2121
a(I27
I0
I0
I0
tp2122
a(I29
I0
I0
I0
tp2123
a(I17
I0
I0
I0
tp2124
a(I-1
I0
I0
I0
tp2125
a(I2
I1
I1
I1
tp2126
a(I6
I0
I0
I0
tp2127
a(I19
I0
I0
I0
tp2128
a(I27
I0
I0
I0
tp2129
a(I17
I0
I0
I0
tp2130
a(I-1
I0
I0
I0
tp2131
a(I0
I0
I0
I0
tp2132
a(I2
I1
I1
I1
tp2133
a(I6
I0
I0
I0
tp2134
a(I11
I0
I0
I0
tp2135
a(I27
I0
I0
I0
tp2136
a(I19
I0
I0
I0
tp2137
a(I29
I0
I0
I0
tp2138
a(I19
I0
I0
I0
tp2139
a(I5
I0
I0
I0
tp2140
a(I11
I0
I0
I0
tp2141
a(I5
I0
I0
I0
tp2142
a(I1
I0
I0
I0
tp2143
a(I-1
I0
I0
I0
tp2144
a(lp2145
(I6
I1
I1
I1
tp2146
a(I28
I1
I1
I0
tp2147
a(I19
I1
I1
I1
tp2148
a(I31
I0
I0
I1
tp2149
a(I11
I1
I1
I1
tp2150
a(I5
I0
I0
I0
tp2151
a(I6
I0
I0
I0
tp2152
a(I12
I0
I0
I0
tp2153
a(I-1
I0
I0
I0
tp2154
a(I31
I1
I1
I0
tp2155
a(I19
I0
I0
I0
tp2156
a(I26
I0
I0
I0
tp2157
a(I2
I0
I0
I0
tp2158
a(I29
I0
I0
I0
tp2159
a(I11
I0
I0
I0
tp2160
a(I0
I0
I0
I0
tp2161
a(I10
I0
I0
I0
tp2162
a(I26
I0
I0
I0
tp2163
a(I19
I0
I0
I0
tp2164
a(I-1
I0
I0
I0
tp2165
a(I19
I0
I0
I0
tp2166
a(I-1
I0
I0
I0
tp2167
a(I5
I0
I0
I0
tp2168
a(I11
I0
I0
I0
tp2169
a(I5
I0
I0
I0
tp2170
a(I6
I0
I0
I0
tp2171
a(I12
I0
I0
I0
tp2172
a(I-1
I0
I0
I0
tp2173
a(I5
I0
I0
I0
tp2174
a(I28
I0
I0
I0
tp2175
a(I6
I0
I0
I0
tp2176
a(I12
I0
I0
I0
tp2177
a(I-1
I0
I0
I0
tp2178
a(I17
I0
I0
I0
tp2179
a(I31
I0
I0
I0
tp2180
a(I19
I0
I0
I0
tp2181
a(I19
I0
I0
I0
tp2182
a(I29
I0
I0
I0
tp2183
a(I24
I0
I0
I0
tp2184
a(I26
I0
I0
I0
tp2185
a(I19
I0
I0
I0
tp2186
a(I6
I0
I0
I0
tp2187
a(I-1
I0
I0
I0
tp2188
a(I6
I0
I0
I0
tp2189
a(I0
I0
I0
I0
tp2190
a(I28
I0
I0
I0
tp2191
a(I24
I0
I0
I0
tp2192
a(I12
I0
I0
I0
tp2193
a(I-1
I0
I0
I0
tp2194
a(I0
I0
I0
I0
tp2195
a(I19
I0
I0
I0
tp2196
a(I19
I0
I0
I0
tp2197
a(I6
I0
I0
I0
tp2198
a(I-1
I0
I0
I0
tp2199
a(I19
I0
I0
I0
tp2200
a(I6
I0
I0
I0
tp2201
a(I-1
I0
I0
I0
tp2202
a(I0
I0
I0
I0
tp2203
a(I29
I0
I0
I0
tp2204
a(I24
I0
I0
I0
tp2205
a(I11
I0
I0
I0
tp2206
a(I11
I0
I0
I0
tp2207
a(I0
I0
I0
I0
tp2208
a(I11
I0
I0
I0
tp2209
a(I5
I0
I0
I0
tp2210
a(I11
I0
I0
I0
tp2211
a(I-1
I0
I0
I0
tp2212
a(I17
I0
I0
I0
tp2213
a(I31
I0
I0
I0
tp2214
a(I29
I0
I0
I0
tp2215
a(I19
I0
I0
I0
tp2216
a(I5
I0
I0
I0
tp2217
a(I18
I0
I0
I0
tp2218
a(I6
I0
I0
I0
tp2219
a(I6
I0
I0
I0
tp2220
a(I13
I0
I0
I0
tp2221
a(I11
I0
I0
I0
tp2222
a(I5
I0
I0
I0
tp2223
a(I6
I0
I0
I0
tp2224
a(I11
I0
I0
I0
tp2225
a(I0
I0
I0
I0
tp2226
a(I31
I0
I0
I0
tp2227
a(I19
I0
I0
I0
tp2228
a(I6
I0
I0
I0
tp2229
a(I-1
I0
I0
I0
tp2230
a(lp2231
(I2
I0
I0
I0
tp2232
a(I6
I0
I0
I0
tp2233
a(I12
I0
I0
I0
tp2234
a(I5
I0
I0
I0
tp2235
a(I11
I0
I0
I0
tp2236
a(I2
I0
I0
I0
tp2237
a(I6
I0
I0
I0
tp2238
a(I-1
I0
I0
I0
tp2239
a(I6
I0
I0
I0
tp2240
a(I11
I0
I0
I0
tp2241
a(I-1
I0
I0
I0
tp2242
a(I26
I0
I0
I0
tp2243
a(I11
I0
I0
I0
tp2244
a(I-1
I0
I0
I0
tp2245
a(I27
I0
I0
I0
tp2246
a(I29
I0
I0
I0
tp2247
a(I5
I0
I0
I0
tp2248
a(I2
I0
I0
I0
tp2249
a(I11
I0
I0
I0
tp2250
a(I5
I0
I0
I0
tp2251
a(I2
I0
I0
I0
tp2252
a(I11
I0
I0
I0
tp2253
a(I-1
I0
I0
I0
tp2254
a(I0
I0
I0
I0
tp2255
a(I27
I0
I0
I0
tp2256
a(I18
I0
I0
I0
tp2257
a(I11
I0
I0
I0
tp2258
a(I5
I0
I0
I0
tp2259
a(I11
I0
I0
I0
tp2260
a(I0
I0
I0
I0
tp2261
a(I11
I0
I0
I0
tp2262
a(I-1
I0
I0
I0
tp2263
a(I12
I0
I0
I0
tp2264
a(I5
I0
I0
I0
tp2265
a(I6
I1
I1
I1
tp2266
a(I11
I1
I1
I1
tp2267
a(I27
I0
I0
I0
tp2268
a(I29
I0
I0
I0
tp2269
a(I5
I1
I1
I1
tp2270
a(I2
I0
I0
I0
tp2271
a(I12
I0
I0
I0
tp2272
a(I5
I0
I0
I0
tp2273
a(I6
I0
I0
I0
tp2274
a(I11
I0
I0
I0
tp2275
a(I-1
I0
I0
I0
tp2276
a(I5
I0
I0
I0
tp2277
a(I1
I0
I0
I0
tp2278
a(I-1
I0
I0
I0
tp2279
a(I2
I0
I0
I0
tp2280
a(I6
I0
I0
I0
tp2281
a(I11
I0
I0
I0
tp2282
a(I5
I0
I0
I0
tp2283
a(I2
I0
I0
I0
tp2284
a(I11
I0
I0
I0
tp2285
a(I27
I0
I0
I0
tp2286
a(I6
I0
I0
I0
tp2287
a(I6
I0
I0
I0
tp2288
a(I-1
I0
I0
I0
tp2289
a(I0
I0
I0
I0
tp2290
a(I6
I0
I0
I0
tp2291
a(I19
I0
I0
I0
tp2292
a(I-1
I0
I0
I0
tp2293
a(I6
I0
I0
I0
tp2294
a(I6
I1
I1
I1
tp2295
a(I12
I0
I0
I0
tp2296
a(I5
I0
I0
I0
tp2297
a(I2
I0
I0
I0
tp2298
a(I6
I0
I0
I0
tp2299
a(I11
I0
I0
I0
tp2300
a(I-1
I0
I0
I0
tp2301
a(I11
I0
I0
I0
tp2302
a(I-1
I0
I0
I0
tp2303
a(I0
I0
I0
I0
tp2304
a(I11
I0
I0
I0
tp2305
a(I16
I0
I0
I0
tp2306
a(I-1
I0
I0
I0
tp2307
a(I13
I0
I0
I0
tp2308
a(I13
I0
I0
I0
tp2309
a(I-1
I0
I0
I0
tp2310
a(I11
I0
I0
I0
tp2311
a(I0
I0
I0
I0
tp2312
a(I11
I0
I0
I0
tp2313
a(I-1
I0
I0
I0
tp2314
a(I30
I0
I0
I0
tp2315
a(I6
I0
I0
I0
tp2316
a(I11
I0
I0
I0
tp2317
a(I0
I0
I0
I0
tp2318
a(I19
I0
I0
I0
tp2319
a(I12
I0
I0
I0
tp2320
a(I5
I0
I0
I0
tp2321
a(I6
I0
I0
I0
tp2322
a(I5
I0
I0
I0
tp2323
a(I2
I0
I0
I0
tp2324
a(I11
I0
I0
I0
tp2325
a(I29
I0
I0
I0
tp2326
a(I-1
I0
I0
I0
tp2327
a(I5
I0
I0
I0
tp2328
a(I2
I0
I0
I0
tp2329
a(I11
I0
I0
I0
tp2330
a(I32
I0
I0
I0
tp2331
a(I27
I0
I0
I0
tp2332
a(I12
I0
I0
I0
tp2333
a(I10
I0
I0
I0
tp2334
a(I19
I0
I0
I0
tp2335
a(I26
I0
I0
I0
tp2336
a(I1
I0
I0
I0
tp2337
a(I-1
I0
I0
I0
tp2338
a(lp2339
(I19
I0
I0
I0
tp2340
a(I-1
I0
I0
I0
tp2341
a(I5
I0
I0
I0
tp2342
a(I11
I0
I0
I0
tp2343
a(I11
I0
I0
I0
tp2344
a(I-1
I0
I0
I0
tp2345
a(I2
I0
I0
I0
tp2346
a(I6
I0
I0
I0
tp2347
a(I11
I0
I0
I0
tp2348
a(I5
I0
I0
I0
tp2349
a(I2
I0
I0
I0
tp2350
a(I11
I0
I0
I0
tp2351
a(I5
I0
I0
I0
tp2352
a(I11
I0
I0
I0
tp2353
a(I27
I0
I0
I0
tp2354
a(I29
I0
I0
I0
tp2355
a(I5
I0
I0
I0
tp2356
a(I11
I0
I0
I0
tp2357
a(I5
I0
I0
I0
tp2358
a(I2
I0
I0
I0
tp2359
a(I11
I0
I0
I0
tp2360
a(I-1
I0
I0
I0
tp2361
a(I5
I0
I0
I0
tp2362
a(I2
I0
I0
I0
tp2363
a(I11
I0
I0
I0
tp2364
a(I5
I0
I0
I0
tp2365
a(I11
I0
I0
I0
tp2366
a(I5
I0
I0
I0
tp2367
a(I-1
I0
I0
I0
tp2368
a(I11
I0
I0
I0
tp2369
a(I-1
I0
I0
I0
tp2370
a(I5
I0
I0
I0
tp2371
a(I2
I0
I0
I0
tp2372
a(I11
I0
I0
I0
tp2373
a(I11
I0
I0
I0
tp2374
a(I11
I1
I1
I1
tp2375
a(I11
I1
I1
I1
tp2376
a(I11
I1
I1
I1
tp2377
a(I19
I0
I0
I0
tp2378
a(I5
I0
I0
I0
tp2379
a(I2
I0
I0
I0
tp2380
a(I11
I0
I0
I0
tp2381
a(I5
I0
I0
I0
tp2382
a(I11
I0
I0
I0
tp2383
a(I24
I0
I0
I0
tp2384
a(I2
I0
I0
I0
tp2385
a(I12
I0
I0
I0
tp2386
a(I-1
I0
I0
I0
tp2387
a(I1
I0
I0
I0
tp2388
a(I-1
I0
I0
I0
tp2389
a(I-1
I0
I0
I0
tp2390
a(I2
I0
I0
I0
tp2391
a(I6
I0
I0
I0
tp2392
a(I11
I0
I0
I0
tp2393
a(I5
I0
I0
I0
tp2394
a(I11
I0
I0
I0
tp2395
a(I16
I0
I0
I0
tp2396
a(I11
I0
I0
I0
tp2397
a(I27
I0
I0
I0
tp2398
a(I29
I0
I0
I0
tp2399
a(I5
I0
I0
I0
tp2400
a(I11
I0
I0
I0
tp2401
a(I11
I0
I0
I0
tp2402
a(I-1
I0
I0
I0
tp2403
a(I2
I0
I0
I0
tp2404
a(I0
I0
I0
I0
tp2405
a(I26
I0
I0
I0
tp2406
a(I-1
I0
I0
I0
tp2407
a(I6
I0
I0
I0
tp2408
a(I11
I0
I0
I0
tp2409
a(I5
I0
I0
I0
tp2410
a(I2
I0
I0
I0
tp2411
a(I6
I0
I0
I0
tp2412
a(I11
I0
I0
I0
tp2413
a(I27
I0
I0
I0
tp2414
a(I24
I0
I0
I0
tp2415
a(I2
I0
I0
I0
tp2416
a(I6
I0
I0
I0
tp2417
a(I11
I0
I0
I0
tp2418
a(I24
I0
I0
I0
tp2419
a(I11
I0
I0
I0
tp2420
a(I-1
I0
I0
I0
tp2421
a(I5
I0
I0
I0
tp2422
a(I2
I0
I0
I0
tp2423
a(I6
I0
I0
I0
tp2424
a(I11
I0
I0
I0
tp2425
a(I-1
I0
I0
I0
tp2426
a(I12
I0
I0
I0
tp2427
a(I27
I0
I0
I0
tp2428
a(I11
I0
I0
I0
tp2429
a(I5
I0
I0
I0
tp2430
a(I28
I0
I0
I0
tp2431
a(I-1
I0
I0
I0
tp2432
a(I5
I0
I0
I0
tp2433
a(I6
I0
I0
I0
tp2434
a(I0
I0
I0
I0
tp2435
a(I6
I0
I0
I0
tp2436
a(I12
I0
I0
I0
tp2437
a(I29
I0
I0
I0
tp2438
a(I5
I0
I0
I0
tp2439
a(I2
I0
I0
I0
tp2440
a(I6
I0
I0
I0
tp2441
a(I12
I0
I0
I0
tp2442
a(I5
I0
I0
I0
tp2443
a(I11
I0
I0
I0
tp2444
a(I-1
I0
I0
I0
tp2445
a(I11
I0
I0
I0
tp2446
a(I0
I0
I0
I0
tp2447
a(I11
I0
I0
I0
tp2448
a(I-1
I0
I0
I0
tp2449
a(lp2450
(I5
I0
I0
I0
tp2451
a(I2
I1
I1
I1
tp2452
a(I28
I1
I1
I1
tp2453
a(I11
I0
I0
I0
tp2454
a(I27
I0
I0
I1
tp2455
a(I12
I1
I1
I0
tp2456
a(I5
I1
I1
I1
tp2457
a(I11
I0
I0
I0
tp2458
a(I-1
I0
I0
I0
tp2459
a(I17
I0
I0
I0
tp2460
a(I27
I0
I0
I0
tp2461
a(I2
I0
I0
I0
tp2462
a(I11
I0
I0
I0
tp2463
a(I5
I0
I0
I0
tp2464
a(I28
I0
I0
I0
tp2465
a(I11
I0
I0
I0
tp2466
a(I12
I0
I0
I0
tp2467
a(I5
I0
I0
I0
tp2468
a(I2
I1
I1
I1
tp2469
a(I11
I0
I0
I0
tp2470
a(I-1
I0
I0
I0
tp2471
a(I32
I0
I0
I0
tp2472
a(I30
I0
I0
I0
tp2473
a(I12
I0
I0
I0
tp2474
a(I5
I0
I0
I0
tp2475
a(I2
I0
I0
I0
tp2476
a(I11
I0
I0
I0
tp2477
a(I24
I0
I0
I0
tp2478
a(I26
I0
I0
I0
tp2479
a(I2
I1
I1
I1
tp2480
a(I12
I0
I0
I0
tp2481
a(I5
I0
I0
I0
tp2482
a(I18
I0
I0
I0
tp2483
a(I12
I0
I0
I0
tp2484
a(I0
I0
I0
I0
tp2485
a(I24
I0
I0
I0
tp2486
a(I26
I0
I0
I0
tp2487
a(I26
I0
I0
I0
tp2488
a(I17
I0
I0
I0
tp2489
a(I5
I0
I0
I0
tp2490
a(I2
I1
I1
I1
tp2491
a(I12
I0
I0
I0
tp2492
a(I5
I0
I0
I0
tp2493
a(I11
I0
I0
I0
tp2494
a(I-1
I0
I0
I0
tp2495
a(I6
I0
I0
I0
tp2496
a(I19
I0
I0
I0
tp2497
a(I-1
I0
I0
I0
tp2498
a(I5
I0
I0
I0
tp2499
a(I6
I0
I0
I0
tp2500
a(I11
I0
I0
I0
tp2501
a(I-1
I0
I0
I0
tp2502
a(I1
I0
I0
I0
tp2503
a(I-1
I0
I0
I0
tp2504
a(I11
I0
I0
I0
tp2505
a(I5
I0
I0
I0
tp2506
a(I2
I1
I1
I1
tp2507
a(I6
I0
I0
I0
tp2508
a(I12
I0
I0
I0
tp2509
a(I33
I1
I1
I1
tp2510
a(I27
I0
I0
I0
tp2511
a(I2
I1
I1
I1
tp2512
a(I11
I0
I0
I0
tp2513
a(I31
I0
I0
I0
tp2514
a(I11
I0
I0
I0
tp2515
a(I16
I0
I0
I0
tp2516
a(I11
I0
I0
I0
tp2517
a(I5
I0
I0
I0
tp2518
a(I2
I1
I1
I1
tp2519
a(I6
I0
I0
I0
tp2520
a(I11
I0
I0
I0
tp2521
a(I5
I1
I1
I1
tp2522
a(I2
I1
I1
I1
tp2523
a(I28
I1
I1
I1
tp2524
a(I11
I0
I0
I0
tp2525
a(I5
I0
I0
I0
tp2526
a(I1
I0
I0
I0
tp2527
a(I-1
I0
I0
I0
tp2528
a(I17
I0
I0
I0
tp2529
a(I27
I0
I0
I0
tp2530
a(I2
I1
I1
I1
tp2531
a(I11
I1
I1
I1
tp2532
a(I24
I0
I0
I0
tp2533
a(I26
I0
I0
I0
tp2534
a(I18
I0
I0
I0
tp2535
a(I11
I0
I0
I0
tp2536
a(I12
I0
I0
I0
tp2537
a(I5
I0
I0
I0
tp2538
a(I1
I0
I0
I0
tp2539
a(I-1
I0
I0
I0
tp2540
a(I2
I0
I0
I0
tp2541
a(I27
I0
I0
I0
tp2542
a(I2
I1
I1
I1
tp2543
a(I6
I0
I0
I0
tp2544
a(I5
I1
I1
I1
tp2545
a(I2
I0
I0
I0
tp2546
a(I6
I0
I0
I0
tp2547
a(I11
I0
I0
I0
tp2548
a(I5
I0
I0
I0
tp2549
a(I12
I1
I1
I0
tp2550
a(I5
I0
I0
I0
tp2551
a(I2
I1
I1
I1
tp2552
a(I12
I0
I0
I0
tp2553
a(I27
I0
I0
I0
tp2554
a(I5
I0
I0
I0
tp2555
a(I11
I0
I0
I0
tp2556
a(I-1
I0
I0
I0
tp2557
a(I17
I0
I0
I0
tp2558
a(I27
I0
I0
I0
tp2559
a(I19
I0
I0
I0
tp2560
a(I2
I0
I0
I0
tp2561
a(I11
I0
I0
I0
tp2562
a(I24
I0
I0
I0
tp2563
a(I2
I1
I1
I1
tp2564
a(I11
I1
I1
I1
tp2565
a(I-1
I0
I0
I0
tp2566
a(I5
I0
I0
I0
tp2567
a(I17
I0
I0
I0
tp2568
a(I27
I0
I0
I0
tp2569
a(I6
I0
I0
I0
tp2570
a(I24
I0
I0
I0
tp2571
a(I26
I0
I0
I0
tp2572
a(I2
I1
I1
I1
tp2573
a(I12
I0
I0
I0
tp2574
a(I5
I0
I0
I0
tp2575
a(I6
I0
I0
I0
tp2576
a(I28
I0
I0
I0
tp2577
a(I-1
I0
I0
I0
tp2578
a(I11
I0
I0
I0
tp2579
a(I31
I0
I0
I0
tp2580
a(I5
I0
I0
I0
tp2581
a(I5
I0
I0
I0
tp2582
a(I2
I1
I1
I1
tp2583
a(I11
I0
I0
I0
tp2584
a(I5
I0
I0
I0
tp2585
a(I19
I0
I0
I0
tp2586
a(I12
I0
I0
I0
tp2587
a(I27
I0
I0
I0
tp2588
a(I19
I0
I0
I0
tp2589
a(I29
I0
I0
I0
tp2590
a(I2
I1
I1
I1
tp2591
a(I11
I1
I1
I1
tp2592
a(I24
I0
I0
I0
tp2593
a(I26
I0
I0
I0
tp2594
a(I17
I0
I0
I0
tp2595
a(I5
I0
I0
I0
tp2596
a(I2
I0
I0
I0
tp2597
a(I6
I0
I0
I0
tp2598
a(I-1
I0
I0
I0
tp2599
a(I6
I0
I0
I0
tp2600
a(I12
I0
I0
I0
tp2601
a(I30
I0
I0
I0
tp2602
a(I5
I0
I0
I0
tp2603
a(I17
I0
I0
I0
tp2604
a(I27
I0
I0
I0
tp2605
a(I19
I0
I0
I0
tp2606
a(I2
I0
I0
I0
tp2607
a(I6
I0
I0
I0
tp2608
a(I6
I0
I0
I0
tp2609
a(I11
I0
I0
I0
tp2610
a(I-1
I0
I0
I0
tp2611
a(I5
I0
I0
I0
tp2612
a(I1
I0
I0
I0
tp2613
a(I-1
I0
I0
I0
tp2614
a(I31
I0
I0
I0
tp2615
a(I11
I0
I0
I0
tp2616
a(I27
I0
I0
I0
tp2617
a(I2
I0
I0
I0
tp2618
a(I6
I0
I0
I0
tp2619
a(I6
I0
I0
I0
tp2620
a(I11
I0
I0
I0
tp2621
a(I5
I1
I1
I1
tp2622
a(I2
I1
I1
I1
tp2623
a(I11
I0
I0
I0
tp2624
a(I5
I0
I0
I0
tp2625
a(I2
I1
I1
I1
tp2626
a(I11
I1
I1
I1
tp2627
a(I29
I0
I0
I0
tp2628
a(I5
I0
I0
I0
tp2629
a(I11
I0
I0
I0
tp2630
a(I5
I0
I0
I0
tp2631
a(I11
I0
I0
I0
tp2632
a(I-1
I0
I0
I0
tp2633
a(lp2634
(I2
I1
I1
I1
tp2635
a(I11
I0
I0
I0
tp2636
a(I27
I0
I0
I0
tp2637
a(I5
I0
I0
I0
tp2638
a(I2
I1
I1
I1
tp2639
a(I11
I0
I0
I0
tp2640
a(I11
I0
I0
I0
tp2641
a(I11
I1
I1
I1
tp2642
a(I5
I0
I0
I0
tp2643
a(I1
I0
I0
I0
tp2644
a(I6
I0
I0
I0
tp2645
a(I1
I0
I0
I0
tp2646
a(I28
I0
I0
I0
tp2647
a(I2
I1
I1
I1
tp2648
a(I11
I0
I0
I0
tp2649
a(I5
I0
I0
I0
tp2650
a(I12
I0
I0
I0
tp2651
a(I5
I0
I0
I0
tp2652
a(I2
I1
I1
I1
tp2653
a(I11
I1
I1
I1
tp2654
a(I11
I1
I1
I1
tp2655
a(I6
I0
I0
I0
tp2656
a(I11
I0
I0
I0
tp2657
a(I24
I0
I0
I0
tp2658
a(I26
I0
I0
I0
tp2659
a(I22
I0
I0
I0
tp2660
a(I5
I0
I0
I0
tp2661
a(I2
I1
I1
I1
tp2662
a(I11
I1
I1
I1
tp2663
a(I11
I1
I1
I1
tp2664
a(I-1
I0
I0
I0
tp2665
a(I32
I0
I0
I0
tp2666
a(I27
I1
I1
I0
tp2667
a(I19
I1
I1
I1
tp2668
a(I29
I1
I1
I0
tp2669
a(I5
I0
I0
I0
tp2670
a(I1
I0
I0
I0
tp2671
a(I-1
I0
I0
I0
tp2672
a(I0
I0
I0
I0
tp2673
a(I26
I0
I0
I0
tp2674
a(I11
I0
I0
I0
tp2675
a(I5
I0
I0
I0
tp2676
a(I2
I0
I0
I0
tp2677
a(I6
I0
I0
I0
tp2678
a(I11
I0
I0
I0
tp2679
a(I12
I0
I0
I0
tp2680
a(I11
I0
I0
I0
tp2681
a(I-1
I0
I0
I0
tp2682
a(I2
I1
I1
I1
tp2683
a(I11
I0
I0
I0
tp2684
a(I27
I1
I1
I0
tp2685
a(I6
I0
I0
I0
tp2686
a(I13
I0
I0
I0
tp2687
a(I1
I0
I0
I0
tp2688
a(I2
I0
I0
I0
tp2689
a(I11
I0
I0
I0
tp2690
a(I19
I0
I0
I0
tp2691
a(I5
I0
I0
I0
tp2692
a(I5
I0
I0
I0
tp2693
a(I1
I0
I0
I0
tp2694
a(I-1
I0
I0
I0
tp2695
a(I5
I0
I0
I0
tp2696
a(I11
I0
I0
I0
tp2697
a(I0
I0
I0
I0
tp2698
a(I11
I0
I0
I0
tp2699
a(I11
I0
I0
I0
tp2700
a(I28
I0
I0
I0
tp2701
a(I2
I1
I1
I1
tp2702
a(I6
I0
I0
I0
tp2703
a(I12
I0
I0
I0
tp2704
a(I24
I0
I0
I0
tp2705
a(I26
I0
I0
I0
tp2706
a(I1
I0
I0
I0
tp2707
a(I0
I0
I0
I0
tp2708
a(I1
I0
I0
I0
tp2709
a(I12
I0
I0
I0
tp2710
a(I19
I0
I0
I0
tp2711
a(I-1
I0
I0
I0
tp2712
a(I2
I1
I1
I1
tp2713
a(I11
I1
I1
I1
tp2714
a(I31
I0
I0
I0
tp2715
a(I6
I0
I0
I0
tp2716
a(I1
I0
I0
I0
tp2717
a(I5
I0
I0
I0
tp2718
a(I11
I0
I0
I0
tp2719
a(I5
I0
I0
I0
tp2720
a(I6
I0
I0
I0
tp2721
a(I0
I0
I0
I0
tp2722
a(I6
I0
I0
I0
tp2723
a(I11
I0
I0
I0
tp2724
a(I12
I0
I0
I0
tp2725
a(I-1
I0
I0
I0
tp2726
a(I5
I0
I0
I0
tp2727
a(I1
I0
I0
I0
tp2728
a(I-1
I0
I0
I0
tp2729
a(I12
I0
I0
I0
tp2730
a(I27
I0
I0
I0
tp2731
a(I29
I0
I0
I0
tp2732
a(I12
I0
I0
I0
tp2733
a(I5
I0
I0
I0
tp2734
a(I6
I0
I0
I0
tp2735
a(I1
I0
I0
I0
tp2736
a(I-1
I0
I0
I0
tp2737
a(lp2738
(I11
I1
I1
I1
tp2739
a(I11
I0
I0
I0
tp2740
a(I-1
I0
I0
I0
tp2741
a(I5
I0
I0
I0
tp2742
a(I2
I0
I0
I0
tp2743
a(I6
I0
I0
I0
tp2744
a(I11
I0
I0
I0
tp2745
a(I11
I0
I0
I0
tp2746
a(I16
I0
I0
I0
tp2747
a(I8
I0
I0
I0
tp2748
a(I19
I0
I0
I0
tp2749
a(I-1
I0
I0
I0
tp2750
a(I27
I0
I0
I0
tp2751
a(I11
I0
I0
I0
tp2752
a(I5
I0
I0
I0
tp2753
a(I6
I0
I0
I0
tp2754
a(I1
I0
I0
I0
tp2755
a(I-1
I0
I0
I0
tp2756
a(I0
I1
I1
I1
tp2757
a(I5
I0
I0
I0
tp2758
a(I1
I0
I0
I0
tp2759
a(I24
I0
I0
I0
tp2760
a(I1
I0
I0
I0
tp2761
a(I19
I0
I0
I0
tp2762
a(I2
I0
I0
I0
tp2763
a(I6
I0
I0
I0
tp2764
a(I11
I0
I0
I0
tp2765
a(I11
I1
I1
I1
tp2766
a(I0
I1
I1
I1
tp2767
a(I11
I1
I1
I1
tp2768
a(I27
I0
I0
I0
tp2769
a(I2
I0
I0
I0
tp2770
a(I11
I0
I0
I0
tp2771
a(I-1
I0
I0
I0
tp2772
a(I0
I1
I1
I1
tp2773
a(I6
I0
I0
I0
tp2774
a(I27
I0
I0
I1
tp2775
a(I2
I0
I0
I0
tp2776
a(I11
I0
I0
I0
tp2777
a(I5
I0
I0
I0
tp2778
a(I11
I0
I0
I0
tp2779
a(I0
I1
I1
I1
tp2780
a(I27
I0
I0
I0
tp2781
a(I17
I0
I0
I0
tp2782
a(I24
I0
I0
I0
tp2783
a(I26
I0
I0
I0
tp2784
a(I-1
I0
I0
I0
tp2785
a(I17
I0
I0
I0
tp2786
a(I27
I0
I0
I0
tp2787
a(I2
I0
I0
I0
tp2788
a(I11
I0
I0
I0
tp2789
a(I11
I0
I0
I0
tp2790
a(I-1
I0
I0
I0
tp2791
a(I2
I0
I0
I0
tp2792
a(I11
I0
I0
I0
tp2793
a(I24
I0
I0
I0
tp2794
a(I26
I1
I1
I1
tp2795
a(I16
I0
I0
I0
tp2796
a(I1
I0
I0
I0
tp2797
a(I5
I0
I0
I0
tp2798
a(I2
I0
I0
I0
tp2799
a(I6
I0
I0
I0
tp2800
a(I11
I0
I0
I0
tp2801
a(I-1
I0
I0
I0
tp2802
a(I0
I1
I1
I1
tp2803
a(I-1
I1
I1
I1
tp2804
a(I11
I0
I0
I0
tp2805
a(I16
I0
I0
I0
tp2806
a(I11
I0
I0
I0
tp2807
a(I5
I0
I0
I0
tp2808
a(I12
I0
I0
I0
tp2809
a(I12
I0
I0
I0
tp2810
a(I-1
I0
I0
I0
tp2811
a(I24
I0
I0
I0
tp2812
a(I32
I0
I0
I0
tp2813
a(I18
I0
I0
I0
tp2814
a(I12
I0
I0
I0
tp2815
a(I27
I0
I0
I0
tp2816
a(I19
I0
I0
I0
tp2817
a(I29
I0
I0
I0
tp2818
a(I29
I0
I0
I0
tp2819
a(I5
I0
I0
I0
tp2820
a(I1
I0
I0
I0
tp2821
a(I-1
I0
I0
I0
tp2822
a(I-1
I0
I0
I0
tp2823
a(I0
I1
I1
I1
tp2824
a(I27
I0
I0
I0
tp2825
a(I12
I0
I0
I0
tp2826
a(I5
I0
I0
I0
tp2827
a(I11
I0
I0
I0
tp2828
a(I5
I0
I0
I0
tp2829
a(I2
I0
I0
I0
tp2830
a(I6
I0
I0
I0
tp2831
a(I11
I0
I0
I0
tp2832
a(I5
I0
I0
I0
tp2833
a(I2
I0
I0
I0
tp2834
a(I11
I0
I0
I0
tp2835
a(I5
I0
I0
I0
tp2836
a(I12
I0
I0
I0
tp2837
a(I-1
I0
I0
I0
tp2838
a(lp2839
(I2
I0
I0
I0
tp2840
a(I11
I0
I0
I0
tp2841
a(I5
I0
I0
I0
tp2842
a(I12
I0
I0
I0
tp2843
a(I0
I0
I0
I0
tp2844
a(I11
I0
I0
I0
tp2845
a(I31
I0
I0
I0
tp2846
a(I6
I0
I0
I0
tp2847
a(I12
I0
I0
I0
tp2848
a(I28
I0
I0
I0
tp2849
a(I5
I0
I0
I0
tp2850
a(I2
I0
I0
I0
tp2851
a(I6
I0
I0
I0
tp2852
a(I12
I0
I0
I0
tp2853
a(I5
I0
I0
I0
tp2854
a(I2
I0
I0
I0
tp2855
a(I11
I0
I0
I0
tp2856
a(I-1
I0
I0
I0
tp2857
a(I5
I0
I0
I0
tp2858
a(I6
I0
I0
I0
tp2859
a(I12
I0
I0
I1
tp2860
a(I5
I0
I0
I0
tp2861
a(I11
I0
I0
I0
tp2862
a(I-1
I0
I0
I0
tp2863
a(I12
I0
I0
I0
tp2864
a(I0
I0
I0
I0
tp2865
a(I7
I0
I0
I0
tp2866
a(I-1
I0
I0
I0
tp2867
a(I-1
I0
I0
I0
tp2868
a(I6
I0
I0
I0
tp2869
a(I12
I0
I0
I0
tp2870
a(I30
I0
I0
I0
tp2871
a(I6
I0
I0
I0
tp2872
a(I12
I0
I0
I0
tp2873
a(I-1
I0
I0
I0
tp2874
a(I5
I0
I0
I0
tp2875
a(I11
I0
I0
I0
tp2876
a(I12
I0
I0
I0
tp2877
a(I27
I0
I0
I0
tp2878
a(I24
I0
I0
I0
tp2879
a(I2
I0
I0
I0
tp2880
a(I11
I0
I0
I0
tp2881
a(I-1
I0
I0
I0
tp2882
a(I7
I1
I1
I0
tp2883
a(I12
I0
I0
I1
tp2884
a(I10
I0
I0
I0
tp2885
a(I26
I0
I0
I0
tp2886
a(I29
I0
I0
I0
tp2887
a(I5
I0
I0
I0
tp2888
a(I6
I0
I0
I0
tp2889
a(I12
I0
I0
I0
tp2890
a(I5
I0
I0
I0
tp2891
a(I12
I0
I0
I0
tp2892
a(I0
I0
I0
I0
tp2893
a(I12
I0
I0
I0
tp2894
a(I-1
I0
I0
I0
tp2895
a(I7
I1
I1
I0
tp2896
a(I11
I1
I1
I1
tp2897
a(I12
I1
I1
I0
tp2898
a(I19
I0
I0
I0
tp2899
a(I30
I0
I0
I0
tp2900
a(I2
I0
I0
I0
tp2901
a(I11
I0
I0
I0
tp2902
a(I11
I0
I0
I0
tp2903
a(I0
I0
I0
I0
tp2904
a(I11
I0
I0
I0
tp2905
a(I11
I0
I0
I0
tp2906
a(I11
I0
I0
I0
tp2907
a(I29
I0
I0
I0
tp2908
a(I5
I0
I0
I0
tp2909
a(I2
I0
I0
I0
tp2910
a(I11
I0
I0
I0
tp2911
a(I5
I0
I0
I0
tp2912
a(I2
I0
I0
I0
tp2913
a(I6
I0
I0
I0
tp2914
a(I11
I0
I0
I0
tp2915
a(I24
I0
I0
I0
tp2916
a(I26
I0
I0
I0
tp2917
a(I2
I0
I0
I0
tp2918
a(I12
I0
I0
I0
tp2919
a(I-1
I0
I0
I0
tp2920
a(I0
I0
I0
I0
tp2921
a(I2
I0
I0
I0
tp2922
a(I6
I0
I0
I0
tp2923
a(I11
I0
I0
I0
tp2924
a(I5
I0
I0
I0
tp2925
a(I6
I0
I0
I0
tp2926
a(I11
I0
I0
I0
tp2927
a(I0
I0
I0
I0
tp2928
a(I11
I0
I0
I0
tp2929
a(I5
I0
I0
I0
tp2930
a(I2
I0
I0
I0
tp2931
a(I30
I1
I1
I0
tp2932
a(I29
I0
I0
I0
tp2933
a(I22
I0
I0
I0
tp2934
a(I24
I0
I0
I0
tp2935
a(I26
I0
I0
I0
tp2936
a(I11
I0
I0
I0
tp2937
a(I-1
I0
I0
I0
tp2938
a(I24
I0
I0
I0
tp2939
a(I26
I0
I0
I0
tp2940
a(I2
I0
I0
I0
tp2941
a(I11
I0
I0
I0
tp2942
a(I11
I0
I0
I0
tp2943
a(I0
I0
I0
I0
tp2944
a(I11
I0
I0
I0
tp2945
a(I5
I0
I0
I0
tp2946
a(I6
I0
I0
I0
tp2947
a(I12
I0
I0
I0
tp2948
a(I-1
I0
I0
I0
tp2949
a(I2
I0
I0
I0
tp2950
a(I12
I0
I0
I0
tp2951
a(I0
I0
I0
I0
tp2952
a(I12
I0
I0
I0
tp2953
a(I30
I1
I1
I0
tp2954
a(I29
I0
I0
I0
tp2955
a(I5
I0
I0
I0
tp2956
a(I2
I0
I0
I0
tp2957
a(I11
I0
I0
I0
tp2958
a(I31
I0
I0
I0
tp2959
a(I29
I0
I0
I0
tp2960
a(I5
I0
I0
I0
tp2961
a(I2
I0
I0
I0
tp2962
a(I6
I0
I0
I0
tp2963
a(I11
I0
I0
I0
tp2964
a(I5
I0
I0
I0
tp2965
a(I2
I0
I0
I0
tp2966
a(I6
I0
I0
I0
tp2967
a(I12
I0
I0
I0
tp2968
a(I-1
I0
I0
I0
tp2969
a(I19
I0
I0
I0
tp2970
a(I5
I0
I0
I0
tp2971
a(I2
I0
I0
I0
tp2972
a(I12
I0
I0
I0
tp2973
a(I5
I0
I0
I0
tp2974
a(I2
I0
I0
I0
tp2975
a(I11
I0
I0
I0
tp2976
a(I0
I0
I0
I0
tp2977
a(I29
I0
I0
I0
tp2978
a(I11
I0
I0
I0
tp2979
a(I12
I0
I0
I0
tp2980
a(I32
I0
I0
I0
tp2981
a(I30
I0
I0
I0
tp2982
a(I2
I0
I0
I0
tp2983
a(I12
I0
I0
I0
tp2984
a(I-1
I0
I0
I0
tp2985
a(lp2986
(I2
I0
I0
I0
tp2987
a(I6
I0
I0
I0
tp2988
a(I11
I0
I0
I0
tp2989
a(I5
I0
I0
I0
tp2990
a(I2
I0
I0
I0
tp2991
a(I11
I0
I0
I0
tp2992
a(I11
I0
I0
I0
tp2993
a(I-1
I0
I0
I0
tp2994
a(I11
I0
I0
I0
tp2995
a(I27
I0
I0
I0
tp2996
a(I29
I1
I1
I0
tp2997
a(I5
I0
I0
I0
tp2998
a(I1
I1
I1
I1
tp2999
a(I-1
I0
I0
I0
tp3000
a(I17
I0
I0
I0
tp3001
a(I27
I0
I0
I0
tp3002
a(I29
I0
I0
I0
tp3003
a(I5
I0
I0
I0
tp3004
a(I6
I0
I0
I0
tp3005
a(I1
I0
I0
I0
tp3006
a(I12
I1
I1
I0
tp3007
a(I5
I0
I0
I0
tp3008
a(I6
I0
I0
I0
tp3009
a(I-1
I0
I0
I0
tp3010
a(I28
I0
I0
I0
tp3011
a(I6
I0
I0
I0
tp3012
a(I6
I0
I0
I0
tp3013
a(I11
I0
I0
I0
tp3014
a(I-1
I0
I0
I0
tp3015
a(I2
I0
I0
I0
tp3016
a(I11
I0
I0
I0
tp3017
a(I5
I0
I0
I0
tp3018
a(I1
I0
I0
I0
tp3019
a(I12
I1
I1
I0
tp3020
a(I27
I1
I1
I0
tp3021
a(I29
I1
I1
I0
tp3022
a(I5
I0
I0
I0
tp3023
a(I2
I0
I0
I0
tp3024
a(I11
I0
I0
I0
tp3025
a(I-1
I0
I0
I0
tp3026
a(lp3027
(I2
I0
I0
I0
tp3028
a(I6
I0
I0
I0
tp3029
a(I11
I0
I0
I0
tp3030
a(I31
I0
I0
I0
tp3031
a(I5
I0
I0
I0
tp3032
a(I12
I0
I0
I0
tp3033
a(I-1
I0
I0
I0
tp3034
a(I29
I0
I0
I0
tp3035
a(I12
I0
I0
I0
tp3036
a(I5
I0
I0
I0
tp3037
a(I6
I0
I0
I0
tp3038
a(I11
I0
I0
I0
tp3039
a(I-1
I0
I0
I0
tp3040
a(I-1
I0
I0
I0
tp3041
a(I6
I0
I0
I0
tp3042
a(I12
I0
I0
I0
tp3043
a(I-1
I0
I0
I0
tp3044
a(I6
I0
I0
I0
tp3045
a(I5
I0
I0
I0
tp3046
a(I11
I0
I0
I0
tp3047
a(I11
I1
I1
I1
tp3048
a(I11
I0
I0
I0
tp3049
a(I0
I0
I0
I0
tp3050
a(I6
I1
I1
I1
tp3051
a(I7
I1
I1
I1
tp3052
a(I11
I1
I1
I1
tp3053
a(I11
I0
I0
I0
tp3054
a(I-1
I0
I0
I0
tp3055
a(I30
I0
I0
I0
tp3056
a(I6
I0
I0
I0
tp3057
a(I12
I0
I0
I0
tp3058
a(I5
I1
I1
I1
tp3059
a(I18
I0
I0
I0
tp3060
a(I6
I0
I0
I0
tp3061
a(I11
I0
I0
I0
tp3062
a(I12
I0
I0
I0
tp3063
a(I24
I0
I0
I0
tp3064
a(I26
I0
I0
I0
tp3065
a(I12
I0
I0
I0
tp3066
a(I5
I0
I0
I0
tp3067
a(I2
I0
I0
I0
tp3068
a(I6
I0
I0
I0
tp3069
a(I11
I0
I0
I0
tp3070
a(I-1
I0
I0
I0
tp3071
a(I0
I0
I0
I0
tp3072
a(I12
I0
I0
I0
tp3073
a(I6
I0
I0
I0
tp3074
a(I5
I0
I0
I0
tp3075
a(I6
I0
I0
I0
tp3076
a(I11
I1
I1
I1
tp3077
a(I11
I0
I0
I0
tp3078
a(I11
I0
I0
I0
tp3079
a(I11
I0
I0
I0
tp3080
a(I20
I0
I0
I0
tp3081
a(I12
I0
I0
I0
tp3082
a(I24
I0
I0
I0
tp3083
a(I2
I0
I0
I0
tp3084
a(I12
I0
I0
I0
tp3085
a(I5
I0
I0
I0
tp3086
a(I2
I0
I0
I0
tp3087
a(I6
I0
I0
I0
tp3088
a(I11
I0
I0
I0
tp3089
a(I-1
I0
I0
I0
tp3090
a(lp3091
(I5
I0
I0
I0
tp3092
a(I1
I0
I0
I0
tp3093
a(I-1
I0
I0
I0
tp3094
a(I11
I1
I1
I1
tp3095
a(I11
I1
I1
I1
tp3096
a(I1
I1
I1
I1
tp3097
a(I27
I1
I1
I0
tp3098
a(I2
I0
I0
I0
tp3099
a(I6
I0
I0
I0
tp3100
a(I11
I0
I0
I0
tp3101
a(I11
I0
I0
I0
tp3102
a(I24
I0
I0
I0
tp3103
a(I26
I0
I0
I0
tp3104
a(I11
I0
I0
I0
tp3105
a(I12
I0
I0
I0
tp3106
a(I5
I0
I0
I0
tp3107
a(I12
I0
I0
I0
tp3108
a(I-1
I0
I0
I0
tp3109
a(I30
I0
I0
I0
tp3110
a(I11
I0
I0
I0
tp3111
a(I11
I0
I0
I0
tp3112
a(I12
I0
I0
I0
tp3113
a(I24
I0
I0
I0
tp3114
a(I6
I0
I0
I0
tp3115
a(I12
I0
I0
I0
tp3116
a(I-1
I0
I0
I0
tp3117
a(I0
I0
I0
I0
tp3118
a(I11
I0
I0
I0
tp3119
a(I12
I0
I0
I0
tp3120
a(I5
I0
I0
I0
tp3121
a(I11
I0
I0
I0
tp3122
a(I11
I0
I0
I0
tp3123
a(I5
I0
I0
I0
tp3124
a(I11
I0
I0
I0
tp3125
a(I-1
I0
I0
I0
tp3126
a(lp3127
(I6
I0
I0
I0
tp3128
a(I6
I0
I0
I0
tp3129
a(I12
I0
I0
I0
tp3130
a(I31
I0
I0
I0
tp3131
a(I2
I1
I1
I1
tp3132
a(I11
I0
I0
I0
tp3133
a(I5
I0
I0
I0
tp3134
a(I11
I0
I0
I0
tp3135
a(I-1
I0
I0
I0
tp3136
a(I0
I0
I0
I0
tp3137
a(I31
I1
I1
I0
tp3138
a(I19
I0
I0
I0
tp3139
a(I26
I0
I0
I0
tp3140
a(I18
I0
I0
I0
tp3141
a(I11
I0
I0
I0
tp3142
a(I-1
I0
I0
I0
tp3143
a(I-1
I0
I0
I0
tp3144
a(I19
I0
I0
I0
tp3145
a(I-1
I0
I0
I0
tp3146
a(I28
I0
I0
I0
tp3147
a(I5
I0
I0
I0
tp3148
a(I11
I1
I1
I1
tp3149
a(I16
I0
I0
I0
tp3150
a(I11
I0
I0
I0
tp3151
a(I-1
I0
I0
I0
tp3152
a(I17
I0
I0
I0
tp3153
a(I27
I0
I0
I0
tp3154
a(I29
I0
I0
I0
tp3155
a(I5
I0
I0
I0
tp3156
a(I6
I0
I0
I0
tp3157
a(I11
I0
I0
I0
tp3158
a(I10
I0
I0
I0
tp3159
a(I19
I0
I0
I0
tp3160
a(I26
I0
I0
I0
tp3161
a(I5
I0
I0
I0
tp3162
a(I2
I0
I0
I0
tp3163
a(I6
I0
I0
I0
tp3164
a(I11
I0
I0
I0
tp3165
a(I-1
I0
I0
I0
tp3166
a(I19
I0
I0
I0
tp3167
a(I-1
I0
I0
I0
tp3168
a(I17
I0
I0
I0
tp3169
a(I10
I0
I0
I0
tp3170
a(I26
I0
I0
I0
tp3171
a(I2
I0
I0
I0
tp3172
a(I11
I0
I0
I0
tp3173
a(I5
I0
I0
I0
tp3174
a(I2
I0
I0
I0
tp3175
a(I19
I0
I0
I0
tp3176
a(I6
I0
I0
I0
tp3177
a(I11
I0
I0
I0
tp3178
a(I-1
I0
I0
I0
tp3179
a(I2
I1
I1
I1
tp3180
a(I13
I0
I0
I0
tp3181
a(I11
I0
I0
I0
tp3182
a(I5
I0
I0
I0
tp3183
a(I11
I0
I0
I0
tp3184
a(I13
I0
I0
I0
tp3185
a(I-1
I0
I0
I0
tp3186
a(I19
I0
I0
I0
tp3187
a(I27
I0
I0
I0
tp3188
a(I2
I1
I1
I1
tp3189
a(I11
I1
I1
I1
tp3190
a(I11
I1
I1
I1
tp3191
a(I-1
I0
I0
I0
tp3192
a(I6
I0
I0
I0
tp3193
a(I12
I0
I0
I0
tp3194
a(I10
I0
I0
I0
tp3195
a(I19
I0
I0
I0
tp3196
a(I26
I0
I0
I0
tp3197
a(I2
I0
I0
I0
tp3198
a(I11
I0
I0
I0
tp3199
a(I-1
I0
I0
I0
tp3200
a(I5
I0
I0
I0
tp3201
a(I6
I0
I0
I0
tp3202
a(I12
I0
I0
I0
tp3203
a(I-1
I0
I0
I0
tp3204
a(I6
I0
I0
I0
tp3205
a(I5
I0
I0
I0
tp3206
a(I5
I0
I0
I0
tp3207
a(I6
I0
I0
I0
tp3208
a(I11
I0
I0
I0
tp3209
a(I0
I0
I0
I0
tp3210
a(I5
I0
I0
I0
tp3211
a(I12
I0
I0
I0
tp3212
a(I-1
I0
I0
I0
tp3213
a(I2
I0
I0
I0
tp3214
a(I11
I0
I0
I0
tp3215
a(I5
I0
I0
I0
tp3216
a(I11
I0
I0
I0
tp3217
a(I19
I0
I0
I0
tp3218
a(I31
I0
I0
I0
tp3219
a(I5
I0
I0
I0
tp3220
a(I19
I0
I0
I0
tp3221
a(I6
I0
I0
I0
tp3222
a(I11
I0
I0
I0
tp3223
a(I12
I0
I0
I0
tp3224
a(I30
I0
I0
I0
tp3225
a(I29
I0
I0
I0
tp3226
a(I-1
I0
I0
I0
tp3227
a(I0
I0
I0
I0
tp3228
a(I12
I0
I0
I0
tp3229
a(I5
I0
I0
I0
tp3230
a(I5
I0
I0
I0
tp3231
a(I30
I0
I0
I0
tp3232
a(I6
I0
I0
I0
tp3233
a(I-1
I0
I0
I0
tp3234
a(lp3235
(I11
I1
I1
I1
tp3236
a(I27
I0
I0
I0
tp3237
a(I19
I0
I0
I0
tp3238
a(I26
I0
I0
I0
tp3239
a(I18
I0
I0
I0
tp3240
a(I11
I0
I0
I0
tp3241
a(I5
I1
I1
I1
tp3242
a(I2
I1
I1
I1
tp3243
a(I11
I0
I0
I0
tp3244
a(I-1
I0
I0
I0
tp3245
a(I5
I0
I0
I0
tp3246
a(I11
I0
I0
I0
tp3247
a(I-1
I0
I0
I0
tp3248
a(I17
I0
I0
I0
tp3249
a(I19
I0
I0
I0
tp3250
a(I27
I0
I0
I0
tp3251
a(I2
I0
I0
I0
tp3252
a(I6
I0
I0
I0
tp3253
a(I11
I0
I0
I0
tp3254
a(I5
I0
I0
I0
tp3255
a(I11
I0
I0
I0
tp3256
a(I5
I0
I0
I0
tp3257
a(I18
I0
I0
I0
tp3258
a(I6
I0
I0
I0
tp3259
a(I11
I0
I0
I0
tp3260
a(I-1
I0
I0
I0
tp3261
a(I6
I0
I0
I0
tp3262
a(I5
I0
I0
I0
tp3263
a(I18
I0
I0
I0
tp3264
a(I11
I0
I0
I0
tp3265
a(I17
I0
I0
I0
tp3266
a(I27
I0
I0
I0
tp3267
a(I6
I0
I0
I0
tp3268
a(I11
I0
I0
I0
tp3269
a(I5
I0
I0
I0
tp3270
a(I0
I0
I0
I0
tp3271
a(I26
I0
I0
I0
tp3272
a(I5
I0
I0
I0
tp3273
a(I11
I0
I0
I0
tp3274
a(I0
I0
I0
I0
tp3275
a(I12
I0
I0
I0
tp3276
a(I-1
I0
I0
I0
tp3277
a(I0
I0
I0
I0
tp3278
a(I17
I0
I0
I0
tp3279
a(I31
I0
I0
I0
tp3280
a(I6
I0
I0
I0
tp3281
a(I5
I0
I0
I0
tp3282
a(I17
I0
I0
I0
tp3283
a(I27
I1
I1
I0
tp3284
a(I17
I0
I0
I0
tp3285
a(I2
I1
I1
I1
tp3286
a(I11
I0
I0
I0
tp3287
a(I11
I0
I0
I0
tp3288
a(I-1
I0
I0
I0
tp3289
a(I5
I0
I0
I0
tp3290
a(I1
I0
I0
I0
tp3291
a(I11
I0
I0
I0
tp3292
a(I24
I0
I0
I0
tp3293
a(I18
I0
I0
I0
tp3294
a(I11
I0
I0
I0
tp3295
a(I0
I0
I0
I0
tp3296
a(I6
I0
I0
I0
tp3297
a(I11
I0
I0
I0
tp3298
a(I11
I0
I0
I0
tp3299
a(I11
I0
I0
I0
tp3300
a(I-1
I0
I0
I0
tp3301
a(I5
I0
I0
I0
tp3302
a(I28
I0
I0
I0
tp3303
a(I5
I0
I0
I0
tp3304
a(I11
I0
I0
I0
tp3305
a(I29
I0
I0
I0
tp3306
a(I24
I0
I0
I0
tp3307
a(I26
I0
I0
I0
tp3308
a(I6
I0
I0
I0
tp3309
a(I0
I0
I0
I0
tp3310
a(I19
I0
I0
I0
tp3311
a(I6
I0
I0
I0
tp3312
a(I-1
I0
I0
I0
tp3313
a(I17
I0
I0
I0
tp3314
a(I27
I0
I0
I0
tp3315
a(I-1
I0
I0
I0
tp3316
a(I26
I0
I0
I0
tp3317
a(I2
I0
I0
I0
tp3318
a(I6
I0
I0
I0
tp3319
a(I11
I0
I0
I0
tp3320
a(I31
I0
I0
I0
tp3321
a(I17
I0
I0
I0
tp3322
a(I5
I0
I0
I0
tp3323
a(I2
I0
I0
I0
tp3324
a(I11
I0
I0
I0
tp3325
a(I5
I0
I0
I0
tp3326
a(I6
I0
I0
I0
tp3327
a(I-1
I0
I0
I0
tp3328
a(I5
I0
I0
I0
tp3329
a(I32
I0
I0
I0
tp3330
a(I18
I0
I0
I0
tp3331
a(I11
I0
I0
I0
tp3332
a(I11
I0
I0
I0
tp3333
a(I5
I0
I0
I0
tp3334
a(I2
I0
I0
I0
tp3335
a(I11
I0
I0
I0
tp3336
a(I12
I0
I0
I0
tp3337
a(I17
I0
I0
I0
tp3338
a(I24
I0
I0
I0
tp3339
a(I26
I0
I0
I0
tp3340
a(I-1
I0
I0
I0
tp3341
a(I26
I0
I0
I0
tp3342
a(I19
I0
I0
I0
tp3343
a(I-1
I0
I0
I0
tp3344
a(I5
I0
I0
I0
tp3345
a(I6
I0
I0
I0
tp3346
a(I11
I0
I0
I0
tp3347
a(I11
I1
I1
I1
tp3348
a(I10
I0
I0
I0
tp3349
a(I26
I0
I0
I0
tp3350
a(I1
I0
I0
I0
tp3351
a(I5
I0
I0
I0
tp3352
a(I2
I0
I0
I0
tp3353
a(I6
I0
I0
I0
tp3354
a(I11
I0
I0
I0
tp3355
a(I16
I0
I0
I0
tp3356
a(I11
I0
I0
I0
tp3357
a(I12
I0
I0
I0
tp3358
a(I-1
I0
I0
I0
tp3359
a(lp3360
(I5
I0
I0
I0
tp3361
a(I1
I0
I0
I0
tp3362
a(I-1
I0
I0
I0
tp3363
a(I6
I0
I0
I0
tp3364
a(I11
I0
I0
I0
tp3365
a(I-1
I0
I0
I0
tp3366
a(I28
I0
I0
I0
tp3367
a(I18
I0
I0
I0
tp3368
a(I12
I0
I0
I0
tp3369
a(I24
I0
I0
I0
tp3370
a(I26
I0
I0
I0
tp3371
a(I20
I0
I0
I0
tp3372
a(I19
I0
I0
I0
tp3373
a(I29
I0
I0
I0
tp3374
a(I-1
I0
I0
I0
tp3375
a(I27
I0
I0
I0
tp3376
a(I2
I0
I0
I0
tp3377
a(I11
I0
I0
I0
tp3378
a(I-1
I0
I0
I0
tp3379
a(I28
I0
I0
I0
tp3380
a(I6
I0
I0
I0
tp3381
a(I12
I0
I0
I0
tp3382
a(I0
I0
I0
I0
tp3383
a(I28
I0
I0
I0
tp3384
a(I2
I0
I0
I0
tp3385
a(I11
I0
I0
I0
tp3386
a(I24
I0
I0
I0
tp3387
a(I2
I0
I0
I0
tp3388
a(I11
I0
I0
I0
tp3389
a(I11
I0
I0
I0
tp3390
a(I11
I0
I0
I0
tp3391
a(I6
I0
I0
I0
tp3392
a(I-1
I0
I0
I0
tp3393
a(I1
I0
I0
I0
tp3394
a(I12
I0
I0
I0
tp3395
a(I30
I0
I0
I0
tp3396
a(I29
I0
I0
I0
tp3397
a(I29
I0
I0
I0
tp3398
a(I5
I1
I1
I1
tp3399
a(I2
I0
I0
I0
tp3400
a(I11
I0
I0
I0
tp3401
a(I5
I1
I1
I1
tp3402
a(I2
I0
I0
I0
tp3403
a(I6
I0
I0
I0
tp3404
a(I12
I0
I0
I0
tp3405
a(I-1
I0
I0
I0
tp3406
a(I1
I0
I0
I0
tp3407
a(I11
I0
I0
I0
tp3408
a(I12
I0
I0
I0
tp3409
a(I5
I0
I0
I0
tp3410
a(I11
I0
I0
I0
tp3411
a(I27
I0
I0
I0
tp3412
a(I2
I0
I0
I0
tp3413
a(I11
I0
I0
I0
tp3414
a(I5
I0
I0
I0
tp3415
a(I2
I0
I0
I0
tp3416
a(I12
I0
I0
I0
tp3417
a(I28
I0
I0
I0
tp3418
a(I2
I0
I0
I0
tp3419
a(I6
I0
I0
I0
tp3420
a(I11
I0
I0
I0
tp3421
a(I11
I0
I0
I0
tp3422
a(I5
I0
I0
I0
tp3423
a(I2
I0
I0
I0
tp3424
a(I6
I0
I0
I0
tp3425
a(I11
I0
I0
I0
tp3426
a(I-1
I0
I0
I0
tp3427
a(I2
I0
I0
I0
tp3428
a(I27
I0
I0
I0
tp3429
a(I5
I0
I0
I0
tp3430
a(I17
I0
I0
I0
tp3431
a(I27
I0
I0
I0
tp3432
a(I29
I0
I0
I0
tp3433
a(I5
I0
I0
I0
tp3434
a(I2
I0
I0
I0
tp3435
a(I6
I0
I0
I0
tp3436
a(I11
I0
I0
I0
tp3437
a(I11
I0
I0
I0
tp3438
a(I5
I0
I0
I0
tp3439
a(I2
I0
I0
I0
tp3440
a(I11
I0
I0
I0
tp3441
a(I11
I0
I0
I0
tp3442
a(I11
I0
I0
I0
tp3443
a(I-1
I0
I0
I0
tp3444
a(I5
I0
I0
I0
tp3445
a(I33
I0
I0
I0
tp3446
a(I30
I0
I0
I0
tp3447
a(I29
I0
I0
I0
tp3448
a(I11
I0
I0
I0
tp3449
a(I-1
I0
I0
I0
tp3450
a(I11
I0
I0
I0
tp3451
a(I5
I1
I1
I1
tp3452
a(I32
I0
I0
I0
tp3453
a(I11
I0
I0
I0
tp3454
a(I31
I0
I0
I0
tp3455
a(I6
I0
I0
I0
tp3456
a(I-1
I0
I0
I0
tp3457
a(I2
I0
I0
I0
tp3458
a(I6
I0
I0
I0
tp3459
a(I0
I0
I0
I0
tp3460
a(I6
I0
I0
I0
tp3461
a(I12
I1
I1
I0
tp3462
a(I30
I0
I0
I0
tp3463
a(I29
I0
I0
I0
tp3464
a(I24
I0
I0
I0
tp3465
a(I26
I0
I0
I0
tp3466
a(I6
I1
I1
I1
tp3467
a(I0
I0
I0
I0
tp3468
a(I2
I0
I0
I0
tp3469
a(I11
I0
I0
I0
tp3470
a(I30
I0
I0
I0
tp3471
a(I29
I0
I0
I0
tp3472
a(I2
I0
I0
I0
tp3473
a(I11
I0
I0
I0
tp3474
a(I19
I0
I0
I0
tp3475
a(I5
I0
I0
I0
tp3476
a(I-1
I0
I0
I0
tp3477
a(I19
I0
I0
I0
tp3478
a(I5
I0
I0
I0
tp3479
a(I1
I0
I0
I0
tp3480
a(I12
I0
I0
I0
tp3481
a(I-1
I0
I0
I0
tp3482
a(I2
I0
I0
I0
tp3483
a(I6
I0
I0
I0
tp3484
a(I27
I0
I0
I0
tp3485
a(I1
I0
I0
I0
tp3486
a(I-1
I0
I0
I0
tp3487
a(I35
I0
I0
I0
tp3488
a(I6
I1
I1
I1
tp3489
a(I27
I0
I0
I0
tp3490
a(I6
I0
I0
I0
tp3491
a(I12
I1
I1
I0
tp3492
a(I-1
I0
I0
I0
tp3493
a(I2
I0
I0
I0
tp3494
a(I27
I0
I0
I0
tp3495
a(I6
I0
I0
I0
tp3496
a(I0
I0
I0
I0
tp3497
a(I2
I0
I0
I0
tp3498
a(I6
I0
I0
I0
tp3499
a(I12
I0
I0
I0
tp3500
a(I27
I0
I0
I0
tp3501
a(I2
I0
I0
I0
tp3502
a(I6
I0
I0
I0
tp3503
a(I11
I0
I0
I0
tp3504
a(I-1
I0
I0
I0
tp3505
a(I2
I0
I0
I0
tp3506
a(I11
I0
I0
I0
tp3507
a(I27
I0
I0
I0
tp3508
a(I1
I0
I0
I0
tp3509
a(I-1
I0
I0
I0
tp3510
a(I2
I0
I0
I0
tp3511
a(I6
I0
I0
I0
tp3512
a(I11
I0
I0
I0
tp3513
a(I5
I0
I0
I0
tp3514
a(I6
I1
I1
I1
tp3515
a(I29
I0
I0
I0
tp3516
a(I5
I0
I0
I0
tp3517
a(I11
I0
I0
I0
tp3518
a(I-1
I0
I0
I0
tp3519
a(I35
I0
I0
I0
tp3520
a(I2
I0
I0
I0
tp3521
a(I11
I0
I0
I0
tp3522
a(I27
I0
I0
I0
tp3523
a(I6
I0
I0
I0
tp3524
a(I11
I0
I0
I0
tp3525
a(I12
I1
I1
I0
tp3526
a(I6
I0
I0
I0
tp3527
a(I24
I0
I0
I0
tp3528
a(I2
I0
I0
I0
tp3529
a(I29
I0
I0
I0
tp3530
a(I5
I0
I0
I0
tp3531
a(I1
I0
I0
I0
tp3532
a(I-1
I0
I0
I0
tp3533
a(I18
I0
I0
I0
tp3534
a(I6
I0
I0
I0
tp3535
a(I11
I0
I0
I0
tp3536
a(I5
I0
I0
I0
tp3537
a(I2
I0
I0
I0
tp3538
a(I11
I0
I0
I0
tp3539
a(I-1
I0
I0
I0
tp3540
a(I2
I0
I0
I0
tp3541
a(I11
I0
I0
I0
tp3542
a(I27
I0
I0
I0
tp3543
a(I24
I0
I0
I0
tp3544
a(I18
I0
I0
I0
tp3545
a(I6
I0
I0
I0
tp3546
a(I12
I0
I0
I0
tp3547
a(I5
I0
I0
I0
tp3548
a(I2
I0
I0
I0
tp3549
a(I11
I0
I0
I0
tp3550
a(I5
I1
I1
I1
tp3551
a(I2
I0
I0
I0
tp3552
a(I6
I0
I0
I0
tp3553
a(I11
I0
I0
I0
tp3554
a(I-1
I0
I0
I0
tp3555
a(I5
I0
I0
I0
tp3556
a(I2
I0
I0
I0
tp3557
a(I1
I0
I0
I0
tp3558
a(I11
I0
I0
I0
tp3559
a(I-1
I0
I0
I0
tp3560
a(I6
I1
I1
I1
tp3561
a(I27
I0
I0
I0
tp3562
a(I2
I0
I0
I0
tp3563
a(I6
I0
I0
I0
tp3564
a(I6
I0
I0
I0
tp3565
a(I12
I0
I0
I0
tp3566
a(I5
I0
I0
I0
tp3567
a(I6
I0
I0
I0
tp3568
a(I12
I0
I0
I0
tp3569
a(I5
I0
I0
I0
tp3570
a(I2
I0
I0
I0
tp3571
a(I6
I0
I0
I0
tp3572
a(I6
I0
I0
I0
tp3573
a(I11
I0
I0
I0
tp3574
a(I-1
I0
I0
I0
tp3575
a(lp3576
(I2
I0
I0
I0
tp3577
a(I1
I0
I0
I0
tp3578
a(I11
I0
I0
I0
tp3579
a(I11
I0
I0
I0
tp3580
a(I-1
I0
I0
I0
tp3581
a(I29
I0
I0
I0
tp3582
a(I5
I0
I0
I0
tp3583
a(I1
I0
I0
I0
tp3584
a(I-1
I0
I0
I0
tp3585
a(I31
I0
I0
I0
tp3586
a(I6
I0
I0
I0
tp3587
a(I6
I0
I0
I0
tp3588
a(I12
I0
I0
I0
tp3589
a(I28
I0
I0
I0
tp3590
a(I2
I0
I0
I0
tp3591
a(I6
I0
I0
I0
tp3592
a(I11
I0
I0
I0
tp3593
a(I0
I0
I0
I0
tp3594
a(I6
I0
I0
I0
tp3595
a(I12
I0
I0
I0
tp3596
a(I-1
I0
I0
I0
tp3597
a(I11
I1
I1
I1
tp3598
a(I31
I0
I0
I1
tp3599
a(I29
I0
I0
I0
tp3600
a(I5
I0
I0
I0
tp3601
a(I1
I0
I0
I0
tp3602
a(I6
I0
I0
I0
tp3603
a(I6
I0
I0
I0
tp3604
a(I11
I0
I0
I0
tp3605
a(I12
I0
I0
I0
tp3606
a(I0
I0
I0
I0
tp3607
a(I19
I0
I0
I0
tp3608
a(I1
I0
I0
I0
tp3609
a(I11
I0
I0
I0
tp3610
a(I6
I0
I0
I0
tp3611
a(I11
I0
I0
I0
tp3612
a(I12
I0
I0
I0
tp3613
a(I-1
I0
I0
I0
tp3614
a(I6
I1
I1
I1
tp3615
a(I5
I0
I0
I0
tp3616
a(I17
I0
I0
I0
tp3617
a(I29
I0
I0
I0
tp3618
a(I5
I0
I0
I0
tp3619
a(I11
I0
I0
I0
tp3620
a(I11
I0
I0
I0
tp3621
a(I-1
I0
I0
I0
tp3622
a(I0
I1
I1
I1
tp3623
a(I31
I0
I0
I0
tp3624
a(I19
I0
I0
I0
tp3625
a(I6
I0
I0
I0
tp3626
a(I19
I0
I0
I0
tp3627
a(I24
I0
I0
I0
tp3628
a(I6
I0
I0
I0
tp3629
a(I11
I0
I0
I0
tp3630
a(I5
I0
I0
I0
tp3631
a(I11
I0
I0
I0
tp3632
a(I5
I0
I0
I0
tp3633
a(I11
I1
I1
I1
tp3634
a(I12
I1
I1
I0
tp3635
a(I-1
I0
I0
I0
tp3636
a(I1
I0
I0
I0
tp3637
a(I19
I1
I1
I1
tp3638
a(I11
I0
I0
I0
tp3639
a(I12
I0
I0
I0
tp3640
a(I30
I1
I1
I1
tp3641
a(I2
I0
I0
I0
tp3642
a(I11
I0
I0
I0
tp3643
a(I5
I0
I0
I0
tp3644
a(I12
I0
I0
I0
tp3645
a(I16
I0
I0
I0
tp3646
a(I11
I1
I1
I1
tp3647
a(I11
I0
I0
I0
tp3648
a(I-1
I0
I0
I0
tp3649
a(I-1
I0
I0
I0
tp3650
a(I5
I0
I0
I0
tp3651
a(I11
I0
I0
I0
tp3652
a(I-1
I0
I0
I0
tp3653
a(I2
I0
I0
I0
tp3654
a(I6
I0
I0
I0
tp3655
a(I11
I0
I0
I0
tp3656
a(I11
I0
I0
I0
tp3657
a(I11
I0
I0
I0
tp3658
a(I11
I0
I0
I0
tp3659
a(I5
I0
I0
I0
tp3660
a(I6
I0
I0
I0
tp3661
a(I11
I0
I0
I0
tp3662
a(I31
I0
I0
I0
tp3663
a(I6
I0
I0
I0
tp3664
a(I6
I0
I0
I0
tp3665
a(I12
I0
I0
I0
tp3666
a(I-1
I0
I0
I0
tp3667
a(I19
I0
I0
I0
tp3668
a(I12
I0
I0
I0
tp3669
a(I0
I0
I0
I0
tp3670
a(I12
I0
I0
I0
tp3671
a(I-1
I0
I0
I0
tp3672
a(lp3673
(I2
I1
I1
I1
tp3674
a(I12
I1
I1
I0
tp3675
a(I5
I0
I0
I0
tp3676
a(I2
I1
I1
I1
tp3677
a(I11
I0
I0
I0
tp3678
a(I11
I0
I0
I0
tp3679
a(I19
I0
I0
I0
tp3680
a(I27
I0
I0
I0
tp3681
a(I6
I1
I1
I1
tp3682
a(I11
I0
I0
I0
tp3683
a(I5
I0
I0
I0
tp3684
a(I6
I0
I0
I0
tp3685
a(I11
I0
I0
I0
tp3686
a(I11
I0
I0
I0
tp3687
a(I-1
I0
I0
I0
tp3688
a(I5
I0
I0
I0
tp3689
a(I18
I0
I0
I0
tp3690
a(I6
I0
I0
I0
tp3691
a(I11
I0
I0
I0
tp3692
a(I5
I0
I0
I0
tp3693
a(I2
I1
I1
I1
tp3694
a(I11
I0
I0
I0
tp3695
a(I5
I0
I0
I0
tp3696
a(I2
I1
I1
I1
tp3697
a(I6
I0
I0
I0
tp3698
a(I11
I0
I0
I0
tp3699
a(I5
I0
I0
I0
tp3700
a(I11
I0
I0
I0
tp3701
a(I17
I0
I0
I0
tp3702
a(I27
I0
I0
I0
tp3703
a(I2
I1
I1
I1
tp3704
a(I28
I0
I0
I0
tp3705
a(I11
I0
I0
I0
tp3706
a(I12
I0
I0
I1
tp3707
a(I5
I0
I0
I0
tp3708
a(I6
I0
I0
I0
tp3709
a(I12
I0
I0
I0
tp3710
a(I-1
I0
I0
I0
tp3711
a(I19
I0
I0
I0
tp3712
a(I11
I0
I0
I0
tp3713
a(I5
I0
I0
I0
tp3714
a(I17
I0
I0
I0
tp3715
a(I27
I0
I0
I0
tp3716
a(I5
I0
I0
I0
tp3717
a(I2
I1
I1
I1
tp3718
a(I6
I0
I0
I0
tp3719
a(I11
I0
I0
I0
tp3720
a(I5
I0
I0
I0
tp3721
a(I11
I0
I0
I0
tp3722
a(I11
I0
I0
I0
tp3723
a(I5
I0
I0
I0
tp3724
a(I2
I1
I1
I1
tp3725
a(I11
I0
I0
I0
tp3726
a(I11
I0
I0
I0
tp3727
a(I-1
I0
I0
I0
tp3728
a(I19
I0
I0
I0
tp3729
a(I19
I0
I0
I0
tp3730
a(I29
I0
I0
I0
tp3731
a(I5
I0
I0
I0
tp3732
a(I6
I0
I0
I0
tp3733
a(I6
I0
I0
I0
tp3734
a(I12
I0
I0
I1
tp3735
a(I-1
I0
I0
I0
tp3736
a(I-1
I0
I0
I0
tp3737
a(I20
I0
I0
I0
tp3738
a(I6
I0
I0
I0
tp3739
a(I12
I0
I0
I0
tp3740
a(I27
I0
I0
I0
tp3741
a(I29
I0
I0
I0
tp3742
a(I5
I0
I0
I0
tp3743
a(I2
I1
I1
I1
tp3744
a(I6
I0
I0
I0
tp3745
a(I6
I1
I1
I1
tp3746
a(I11
I0
I0
I0
tp3747
a(I5
I0
I0
I0
tp3748
a(I2
I1
I1
I1
tp3749
a(I11
I0
I0
I0
tp3750
a(I5
I0
I0
I0
tp3751
a(I2
I1
I1
I1
tp3752
a(I11
I0
I0
I0
tp3753
a(I5
I0
I0
I0
tp3754
a(I11
I0
I0
I0
tp3755
a(I-1
I0
I0
I0
tp3756
a(I2
I1
I1
I1
tp3757
a(I12
I0
I0
I1
tp3758
a(I5
I0
I0
I0
tp3759
a(I2
I1
I1
I1
tp3760
a(I11
I0
I0
I0
tp3761
a(I30
I0
I0
I0
tp3762
a(I29
I0
I0
I0
tp3763
a(I5
I0
I0
I0
tp3764
a(I1
I0
I0
I0
tp3765
a(I6
I0
I0
I0
tp3766
a(I12
I0
I0
I0
tp3767
a(I5
I0
I0
I0
tp3768
a(I2
I1
I1
I1
tp3769
a(I12
I0
I0
I0
tp3770
a(I5
I0
I0
I0
tp3771
a(I2
I1
I1
I1
tp3772
a(I12
I0
I0
I0
tp3773
a(I5
I0
I0
I0
tp3774
a(I11
I0
I0
I0
tp3775
a(I-1
I0
I0
I0
tp3776
a(I12
I0
I0
I0
tp3777
a(I5
I0
I0
I0
tp3778
a(I2
I1
I1
I1
tp3779
a(I11
I0
I0
I0
tp3780
a(I0
I0
I0
I0
tp3781
a(I12
I0
I0
I0
tp3782
a(I-1
I0
I0
I0
tp3783
a(I5
I0
I0
I0
tp3784
a(I2
I1
I1
I1
tp3785
a(I12
I0
I0
I0
tp3786
a(I2
I1
I1
I1
tp3787
a(I11
I0
I0
I0
tp3788
a(I-1
I0
I0
I0
tp3789
a(I2
I1
I1
I1
tp3790
a(I11
I0
I0
I0
tp3791
a(I-1
I0
I0
I0
tp3792
a(I11
I0
I0
I0
tp3793
a(I5
I0
I0
I0
tp3794
a(I2
I1
I1
I1
tp3795
a(I11
I0
I0
I0
tp3796
a(I0
I0
I0
I0
tp3797
a(I11
I0
I0
I0
tp3798
a(I5
I0
I0
I0
tp3799
a(I2
I1
I1
I1
tp3800
a(I6
I0
I0
I0
tp3801
a(I11
I0
I0
I0
tp3802
a(I10
I0
I0
I0
tp3803
a(I26
I0
I0
I0
tp3804
a(I29
I0
I0
I0
tp3805
a(I-1
I0
I0
I0
tp3806
a(I2
I1
I1
I1
tp3807
a(I11
I0
I0
I0
tp3808
a(I5
I0
I0
I0
tp3809
a(I11
I0
I0
I0
tp3810
a(I5
I0
I0
I0
tp3811
a(I2
I1
I1
I1
tp3812
a(I11
I0
I0
I0
tp3813
a(I27
I0
I0
I0
tp3814
a(I29
I0
I0
I0
tp3815
a(I5
I0
I0
I0
tp3816
a(I1
I0
I0
I0
tp3817
a(I5
I0
I0
I0
tp3818
a(I2
I0
I0
I0
tp3819
a(I6
I0
I0
I0
tp3820
a(I11
I0
I0
I0
tp3821
a(I5
I0
I0
I0
tp3822
a(I2
I1
I1
I1
tp3823
a(I11
I0
I0
I0
tp3824
a(I11
I0
I0
I0
tp3825
a(I-1
I0
I0
I0
tp3826
a(I2
I1
I1
I1
tp3827
a(I11
I0
I0
I0
tp3828
a(I5
I0
I0
I0
tp3829
a(I11
I0
I0
I0
tp3830
a(I0
I0
I0
I0
tp3831
a(I2
I1
I1
I1
tp3832
a(I6
I0
I0
I0
tp3833
a(I11
I0
I0
I0
tp3834
a(I-1
I0
I0
I0
tp3835
a(lp3836
(I11
I0
I0
I0
tp3837
a(I6
I1
I1
I1
tp3838
a(I11
I1
I1
I1
tp3839
a(I5
I1
I1
I1
tp3840
a(I11
I0
I0
I0
tp3841
a(I27
I1
I1
I0
tp3842
a(I5
I1
I1
I1
tp3843
a(I2
I0
I0
I0
tp3844
a(I6
I0
I0
I0
tp3845
a(I11
I1
I1
I1
tp3846
a(I5
I0
I0
I0
tp3847
a(I6
I0
I0
I0
tp3848
a(I11
I0
I0
I0
tp3849
a(I-1
I0
I0
I0
tp3850
a(I6
I0
I0
I0
tp3851
a(I11
I0
I0
I0
tp3852
a(I6
I0
I0
I0
tp3853
a(I11
I0
I0
I0
tp3854
a(I0
I0
I0
I0
tp3855
a(I6
I0
I0
I0
tp3856
a(I11
I0
I0
I0
tp3857
a(I-1
I0
I0
I0
tp3858
a(I5
I1
I1
I1
tp3859
a(I2
I0
I0
I0
tp3860
a(I12
I0
I0
I0
tp3861
a(I-1
I0
I0
I0
tp3862
a(I2
I0
I0
I0
tp3863
a(I6
I0
I0
I0
tp3864
a(I11
I0
I0
I0
tp3865
a(I11
I0
I0
I0
tp3866
a(I5
I0
I0
I0
tp3867
a(I2
I0
I0
I0
tp3868
a(I6
I0
I0
I0
tp3869
a(I11
I0
I0
I0
tp3870
a(I5
I1
I1
I1
tp3871
a(I11
I0
I0
I0
tp3872
a(I27
I0
I0
I0
tp3873
a(I5
I0
I0
I0
tp3874
a(I5
I0
I0
I0
tp3875
a(I2
I0
I0
I0
tp3876
a(I11
I0
I0
I0
tp3877
a(I11
I0
I0
I0
tp3878
a(I11
I0
I0
I0
tp3879
a(I-1
I0
I0
I0
tp3880
a(I19
I0
I0
I0
tp3881
a(I30
I0
I0
I0
tp3882
a(I-1
I0
I0
I0
tp3883
a(I5
I1
I1
I1
tp3884
a(I11
I0
I0
I0
tp3885
a(I-1
I0
I0
I0
tp3886
a(I6
I0
I0
I0
tp3887
a(I11
I0
I0
I0
tp3888
a(I5
I0
I0
I0
tp3889
a(I1
I0
I0
I0
tp3890
a(I6
I0
I0
I0
tp3891
a(I1
I0
I0
I0
tp3892
a(I-1
I0
I0
I0
tp3893
a(I2
I0
I0
I0
tp3894
a(I11
I0
I0
I0
tp3895
a(I27
I0
I0
I0
tp3896
a(I29
I0
I0
I0
tp3897
a(I5
I0
I0
I0
tp3898
a(I2
I0
I0
I0
tp3899
a(I11
I0
I0
I0
tp3900
a(I5
I0
I0
I0
tp3901
a(I2
I0
I0
I0
tp3902
a(I6
I0
I0
I0
tp3903
a(I6
I0
I0
I0
tp3904
a(I11
I0
I0
I0
tp3905
a(I11
I0
I0
I0
tp3906
a(I11
I0
I0
I0
tp3907
a(I-1
I0
I0
I0
tp3908
a(I6
I0
I0
I0
tp3909
a(I5
I0
I0
I0
tp3910
a(I11
I0
I0
I0
tp3911
a(I16
I0
I0
I0
tp3912
a(I12
I0
I0
I0
tp3913
a(I-1
I0
I0
I0
tp3914
a(I5
I0
I0
I0
tp3915
a(I18
I0
I0
I0
tp3916
a(I11
I0
I0
I0
tp3917
a(I-1
I0
I0
I0
tp3918
a(I10
I0
I0
I0
tp3919
a(I26
I0
I0
I0
tp3920
a(I0
I0
I0
I0
tp3921
a(I26
I0
I0
I0
tp3922
a(I2
I0
I0
I0
tp3923
a(I11
I0
I0
I0
tp3924
a(I11
I0
I0
I0
tp3925
a(I5
I1
I1
I1
tp3926
a(I2
I0
I0
I0
tp3927
a(I6
I0
I0
I0
tp3928
a(I11
I0
I0
I0
tp3929
a(I-1
I0
I0
I0
tp3930
a(I6
I0
I0
I0
tp3931
a(I11
I0
I0
I0
tp3932
a(I29
I0
I0
I0
tp3933
a(I19
I0
I0
I0
tp3934
a(I1
I0
I0
I0
tp3935
a(I6
I0
I0
I0
tp3936
a(I12
I0
I0
I0
tp3937
a(I5
I0
I0
I0
tp3938
a(I12
I0
I0
I0
tp3939
a(I27
I0
I0
I0
tp3940
a(I2
I0
I0
I0
tp3941
a(I11
I0
I0
I0
tp3942
a(I5
I0
I0
I0
tp3943
a(I2
I0
I0
I0
tp3944
a(I12
I0
I0
I0
tp3945
a(I5
I1
I1
I1
tp3946
a(I2
I0
I0
I0
tp3947
a(I12
I0
I0
I0
tp3948
a(I-1
I0
I0
I0
tp3949
a(I2
I0
I0
I0
tp3950
a(I27
I0
I0
I0
tp3951
a(I29
I0
I0
I0
tp3952
a(I24
I0
I0
I0
tp3953
a(I5
I0
I0
I0
tp3954
a(I6
I0
I0
I0
tp3955
a(I11
I0
I0
I0
tp3956
a(I-1
I0
I0
I0
tp3957
a(I6
I0
I0
I0
tp3958
a(I5
I1
I1
I1
tp3959
a(I18
I0
I0
I0
tp3960
a(I11
I0
I0
I0
tp3961
a(I-1
I0
I0
I0
tp3962
a(I0
I0
I0
I0
tp3963
a(I6
I0
I0
I0
tp3964
a(I10
I0
I0
I0
tp3965
a(I12
I0
I0
I0
tp3966
a(I-1
I0
I0
I0
tp3967
a(lp3968
(I8
I0
I0
I0
tp3969
a(I6
I0
I0
I0
tp3970
a(I11
I0
I0
I0
tp3971
a(I6
I0
I0
I0
tp3972
a(I24
I0
I0
I0
tp3973
a(I6
I0
I0
I0
tp3974
a(I11
I0
I0
I0
tp3975
a(I11
I0
I0
I0
tp3976
a(I-1
I0
I0
I0
tp3977
a(I11
I0
I0
I0
tp3978
a(I12
I0
I0
I0
tp3979
a(I30
I0
I0
I0
tp3980
a(I6
I0
I0
I0
tp3981
a(I11
I1
I1
I1
tp3982
a(I11
I0
I0
I0
tp3983
a(I-1
I0
I0
I0
tp3984
a(I11
I0
I0
I0
tp3985
a(I-1
I0
I0
I0
tp3986
a(I31
I0
I0
I0
tp3987
a(I-1
I0
I0
I0
tp3988
a(I11
I0
I0
I0
tp3989
a(I5
I1
I1
I1
tp3990
a(I11
I0
I0
I0
tp3991
a(I-1
I0
I0
I0
tp3992
a(I11
I0
I0
I0
tp3993
a(I-1
I0
I0
I0
tp3994
a(I6
I0
I0
I0
tp3995
a(I11
I1
I1
I1
tp3996
a(I11
I0
I0
I0
tp3997
a(I-1
I0
I0
I0
tp3998
a(I6
I0
I0
I0
tp3999
a(I11
I0
I0
I0
tp4000
a(I-1
I0
I0
I0
tp4001
a(I0
I0
I0
I0
tp4002
a(I6
I0
I0
I0
tp4003
a(I11
I0
I0
I0
tp4004
a(I11
I0
I0
I0
tp4005
a(I-1
I0
I0
I0
tp4006
a(I5
I0
I0
I0
tp4007
a(I12
I0
I0
I0
tp4008
a(I-1
I0
I0
I0
tp4009
a(I2
I0
I0
I0
tp4010
a(I11
I0
I0
I0
tp4011
a(I5
I1
I1
I1
tp4012
a(I2
I0
I0
I0
tp4013
a(I11
I0
I0
I0
tp4014
a(I19
I0
I0
I0
tp4015
a(I31
I0
I0
I0
tp4016
a(I2
I0
I0
I0
tp4017
a(I6
I0
I0
I0
tp4018
a(I11
I0
I0
I0
tp4019
a(I5
I1
I1
I1
tp4020
a(I2
I0
I0
I0
tp4021
a(I6
I0
I0
I0
tp4022
a(I11
I0
I0
I0
tp4023
a(I29
I0
I0
I0
tp4024
a(I5
I0
I0
I0
tp4025
a(I2
I0
I0
I0
tp4026
a(I11
I0
I0
I0
tp4027
a(I5
I1
I1
I1
tp4028
a(I2
I0
I0
I0
tp4029
a(I6
I0
I0
I0
tp4030
a(I11
I0
I0
I0
tp4031
a(I-1
I0
I0
I0
tp4032
a(I11
I0
I0
I0
tp4033
a(I30
I1
I1
I0
tp4034
a(I20
I0
I0
I0
tp4035
a(I19
I0
I0
I0
tp4036
a(I29
I0
I0
I0
tp4037
a(I5
I0
I0
I0
tp4038
a(I6
I0
I0
I0
tp4039
a(I11
I0
I0
I0
tp4040
a(I11
I0
I0
I0
tp4041
a(I-1
I0
I0
I0
tp4042
a(I32
I0
I0
I0
tp4043
a(I10
I0
I0
I0
tp4044
a(I26
I0
I0
I0
tp4045
a(I6
I0
I0
I0
tp4046
a(I24
I0
I0
I0
tp4047
a(I26
I0
I0
I0
tp4048
a(I-1
I0
I0
I0
tp4049
a(I6
I0
I0
I0
tp4050
a(I6
I0
I0
I0
tp4051
a(I11
I0
I0
I0
tp4052
a(I-1
I0
I0
I0
tp4053
a(I0
I0
I0
I0
tp4054
a(I6
I0
I0
I0
tp4055
a(I11
I0
I0
I0
tp4056
a(I-1
I0
I0
I0
tp4057
a(I5
I0
I0
I0
tp4058
a(I12
I0
I0
I0
tp4059
a(I-1
I0
I0
I0
tp4060
a(I2
I0
I0
I0
tp4061
a(I11
I0
I0
I0
tp4062
a(I5
I1
I1
I1
tp4063
a(I12
I1
I1
I0
tp4064
a(I30
I1
I1
I0
tp4065
a(I6
I0
I0
I0
tp4066
a(I24
I0
I0
I0
tp4067
a(I26
I0
I0
I0
tp4068
a(I5
I0
I0
I0
tp4069
a(I11
I0
I0
I0
tp4070
a(I-1
I0
I0
I0
tp4071
a(I28
I0
I0
I0
tp4072
a(I12
I0
I0
I0
tp4073
a(I-1
I0
I0
I0
tp4074
a(I11
I0
I0
I0
tp4075
a(I-1
I0
I0
I0
tp4076
a(I-1
I0
I0
I0
tp4077
a(I11
I1
I1
I1
tp4078
a(I12
I1
I1
I0
tp4079
a(I-1
I0
I0
I0
tp4080
a(I0
I0
I0
I0
tp4081
a(I6
I0
I0
I0
tp4082
a(I11
I0
I0
I0
tp4083
a(I-1
I0
I0
I0
tp4084
a(I2
I0
I0
I0
tp4085
a(I11
I0
I0
I0
tp4086
a(I10
I0
I0
I0
tp4087
a(I26
I0
I0
I0
tp4088
a(I2
I0
I0
I0
tp4089
a(I6
I0
I0
I0
tp4090
a(I11
I0
I0
I0
tp4091
a(I11
I0
I0
I0
tp4092
a(I5
I0
I0
I0
tp4093
a(I6
I0
I0
I0
tp4094
a(I11
I0
I0
I0
tp4095
a(I31
I0
I0
I0
tp4096
a(I6
I0
I0
I0
tp4097
a(I-1
I0
I0
I0
tp4098
a(I19
I0
I0
I0
tp4099
a(I27
I1
I1
I0
tp4100
a(I11
I1
I1
I1
tp4101
a(I12
I1
I1
I0
tp4102
a(I30
I0
I0
I0
tp4103
a(I6
I0
I0
I0
tp4104
a(I0
I0
I0
I0
tp4105
a(I20
I0
I0
I0
tp4106
a(I19
I0
I0
I0
tp4107
a(I6
I0
I0
I0
tp4108
a(I11
I0
I0
I0
tp4109
a(I11
I0
I0
I0
tp4110
a(I-1
I0
I0
I0
tp4111
a(lp4112
(I2
I0
I0
I0
tp4113
a(I11
I0
I0
I0
tp4114
a(I11
I1
I1
I1
tp4115
a(I31
I0
I0
I0
tp4116
a(I29
I0
I0
I0
tp4117
a(I5
I1
I1
I1
tp4118
a(I2
I0
I0
I0
tp4119
a(I6
I0
I0
I0
tp4120
a(I6
I0
I0
I0
tp4121
a(I11
I0
I0
I0
tp4122
a(I-1
I0
I0
I0
tp4123
a(I5
I0
I0
I0
tp4124
a(I11
I0
I0
I0
tp4125
a(I5
I1
I1
I1
tp4126
a(I6
I0
I0
I0
tp4127
a(I11
I0
I0
I0
tp4128
a(I-1
I0
I0
I0
tp4129
a(I29
I0
I0
I0
tp4130
a(I5
I0
I0
I0
tp4131
a(I6
I0
I0
I0
tp4132
a(I6
I0
I0
I0
tp4133
a(I11
I0
I0
I0
tp4134
a(I-1
I0
I0
I0
tp4135
a(I11
I0
I0
I0
tp4136
a(I-1
I0
I0
I0
tp4137
a(I32
I0
I0
I0
tp4138
a(I31
I0
I0
I0
tp4139
a(I2
I0
I0
I0
tp4140
a(I11
I0
I0
I0
tp4141
a(I5
I0
I0
I0
tp4142
a(I2
I0
I0
I0
tp4143
a(I6
I0
I0
I0
tp4144
a(I11
I0
I0
I0
tp4145
a(I-1
I0
I0
I0
tp4146
a(I25
I0
I0
I0
tp4147
a(I-1
I0
I0
I0
tp4148
a(I13
I0
I0
I0
tp4149
a(I-1
I0
I0
I0
tp4150
a(I-1
I0
I0
I0
tp4151
a(I2
I0
I0
I0
tp4152
a(I11
I0
I0
I0
tp4153
a(I11
I0
I0
I0
tp4154
a(I13
I0
I0
I0
tp4155
a(I11
I0
I0
I0
tp4156
a(I11
I0
I0
I0
tp4157
a(I-1
I0
I0
I0
tp4158
a(I32
I0
I0
I0
tp4159
a(I19
I0
I0
I0
tp4160
a(I31
I0
I0
I0
tp4161
a(I5
I1
I1
I1
tp4162
a(I6
I0
I0
I0
tp4163
a(I-1
I0
I0
I0
tp4164
a(I26
I0
I0
I0
tp4165
a(I5
I0
I0
I0
tp4166
a(I11
I0
I0
I0
tp4167
a(I0
I0
I0
I0
tp4168
a(I13
I0
I0
I0
tp4169
a(I-1
I0
I0
I0
tp4170
a(I11
I0
I0
I0
tp4171
a(I-1
I0
I0
I0
tp4172
a(I-1
I0
I0
I0
tp4173
a(I6
I0
I0
I0
tp4174
a(I30
I0
I0
I0
tp4175
a(I11
I0
I0
I0
tp4176
a(I11
I0
I0
I0
tp4177
a(I-1
I0
I0
I0
tp4178
a(I11
I0
I0
I0
tp4179
a(I5
I0
I0
I0
tp4180
a(I5
I0
I0
I0
tp4181
a(I6
I0
I0
I0
tp4182
a(I-1
I0
I0
I0
tp4183
a(I2
I0
I0
I0
tp4184
a(I11
I0
I0
I0
tp4185
a(I11
I0
I0
I0
tp4186
a(I31
I0
I0
I0
tp4187
a(I29
I0
I0
I0
tp4188
a(I5
I0
I0
I0
tp4189
a(I19
I0
I0
I0
tp4190
a(I28
I0
I0
I0
tp4191
a(I6
I0
I0
I0
tp4192
a(I11
I0
I0
I0
tp4193
a(I12
I0
I0
I0
tp4194
a(I-1
I0
I0
I0
tp4195
a(I0
I0
I0
I0
tp4196
a(I5
I0
I0
I0
tp4197
a(I29
I0
I0
I0
tp4198
a(I6
I0
I0
I0
tp4199
a(I12
I0
I0
I0
tp4200
a(I5
I0
I0
I0
tp4201
a(I7
I0
I0
I0
tp4202
a(I12
I0
I0
I0
tp4203
a(I0
I0
I0
I0
tp4204
a(I7
I0
I0
I0
tp4205
a(I12
I0
I0
I0
tp4206
a(I11
I0
I0
I0
tp4207
a(I5
I0
I0
I0
tp4208
a(I2
I0
I0
I0
tp4209
a(I13
I0
I0
I0
tp4210
a(I6
I0
I0
I0
tp4211
a(I11
I0
I0
I0
tp4212
a(I11
I0
I0
I0
tp4213
a(I29
I0
I0
I0
tp4214
a(I24
I0
I0
I0
tp4215
a(I26
I0
I0
I0
tp4216
a(I12
I0
I0
I0
tp4217
a(I-1
I0
I0
I0
tp4218
a(I17
I0
I0
I0
tp4219
a(I31
I0
I0
I0
tp4220
a(I2
I0
I0
I0
tp4221
a(I6
I0
I0
I0
tp4222
a(I11
I0
I0
I0
tp4223
a(I5
I0
I0
I0
tp4224
a(I2
I0
I0
I0
tp4225
a(I6
I0
I0
I0
tp4226
a(I11
I0
I0
I0
tp4227
a(I5
I0
I0
I0
tp4228
a(I11
I1
I1
I1
tp4229
a(I5
I0
I0
I0
tp4230
a(I2
I0
I0
I0
tp4231
a(I12
I0
I0
I0
tp4232
a(I27
I0
I0
I0
tp4233
a(I5
I0
I0
I0
tp4234
a(I2
I0
I0
I0
tp4235
a(I11
I0
I0
I0
tp4236
a(I5
I0
I0
I0
tp4237
a(I2
I0
I0
I0
tp4238
a(I11
I0
I0
I0
tp4239
a(I5
I0
I0
I0
tp4240
a(I28
I0
I0
I0
tp4241
a(I0
I0
I0
I0
tp4242
a(I28
I0
I0
I0
tp4243
a(I19
I0
I0
I0
tp4244
a(I6
I0
I0
I0
tp4245
a(I12
I0
I0
I0
tp4246
a(I-1
I0
I0
I0
tp4247
a(I0
I0
I0
I0
tp4248
a(I17
I0
I0
I0
tp4249
a(I19
I0
I0
I0
tp4250
a(I31
I0
I0
I0
tp4251
a(I6
I0
I0
I0
tp4252
a(I5
I0
I0
I0
tp4253
a(I2
I0
I0
I0
tp4254
a(I11
I0
I0
I0
tp4255
a(I17
I0
I0
I0
tp4256
a(I27
I0
I0
I0
tp4257
a(I6
I0
I0
I0
tp4258
a(I5
I0
I0
I0
tp4259
a(I2
I0
I0
I0
tp4260
a(I11
I0
I0
I0
tp4261
a(I-1
I0
I0
I0
tp4262
a(I19
I0
I0
I0
tp4263
a(I6
I0
I0
I0
tp4264
a(I27
I0
I0
I0
tp4265
a(I5
I0
I0
I0
tp4266
a(I11
I0
I0
I0
tp4267
a(I27
I0
I0
I0
tp4268
a(I29
I0
I0
I0
tp4269
a(I24
I0
I0
I0
tp4270
a(I26
I0
I0
I0
tp4271
a(I24
I0
I0
I0
tp4272
a(I26
I0
I0
I0
tp4273
a(I18
I0
I0
I0
tp4274
a(I6
I0
I0
I0
tp4275
a(I11
I0
I0
I0
tp4276
a(I11
I0
I0
I0
tp4277
a(I-1
I0
I0
I0
tp4278
a(I5
I1
I1
I1
tp4279
a(I2
I0
I0
I0
tp4280
a(I11
I0
I0
I0
tp4281
a(I-1
I0
I0
I0
tp4282
a(I2
I0
I0
I0
tp4283
a(I11
I0
I0
I0
tp4284
a(I27
I0
I0
I0
tp4285
a(I5
I0
I0
I0
tp4286
a(I6
I0
I0
I0
tp4287
a(I11
I0
I0
I0
tp4288
a(I-1
I0
I0
I0
tp4289
a(I0
I0
I0
I0
tp4290
a(I11
I0
I0
I0
tp4291
a(I5
I0
I0
I0
tp4292
a(I6
I0
I0
I0
tp4293
a(I-1
I0
I0
I0
tp4294
a(I6
I0
I0
I0
tp4295
a(I-1
I0
I0
I0
tp4296
a(I0
I0
I0
I0
tp4297
a(I6
I0
I0
I0
tp4298
a(I-1
I0
I0
I0
tp4299
a(I6
I0
I0
I0
tp4300
a(I11
I0
I0
I0
tp4301
a(I11
I0
I0
I0
tp4302
a(I0
I0
I0
I0
tp4303
a(I13
I0
I0
I0
tp4304
a(I30
I1
I1
I1
tp4305
a(I13
I0
I0
I0
tp4306
a(I-1
I0
I0
I0
tp4307
a(I-1
I0
I0
I0
tp4308
a(lp4309
(I2
I1
I1
I1
tp4310
a(I11
I0
I0
I0
tp4311
a(I11
I0
I0
I0
tp4312
a(I5
I0
I0
I0
tp4313
a(I2
I0
I0
I0
tp4314
a(I11
I0
I0
I0
tp4315
a(I5
I0
I0
I0
tp4316
a(I12
I0
I0
I0
tp4317
a(I30
I0
I0
I0
tp4318
a(I2
I1
I1
I1
tp4319
a(I12
I0
I0
I0
tp4320
a(I33
I0
I0
I0
tp4321
a(I30
I0
I0
I0
tp4322
a(I19
I0
I0
I0
tp4323
a(I29
I1
I1
I0
tp4324
a(I5
I1
I1
I0
tp4325
a(I2
I1
I1
I1
tp4326
a(I13
I0
I0
I0
tp4327
a(I11
I0
I0
I0
tp4328
a(I13
I0
I0
I0
tp4329
a(I-1
I0
I0
I0
tp4330
a(I5
I0
I0
I0
tp4331
a(I2
I0
I0
I0
tp4332
a(I27
I0
I0
I0
tp4333
a(I2
I1
I1
I1
tp4334
a(I11
I0
I0
I0
tp4335
a(I11
I0
I0
I0
tp4336
a(I19
I0
I0
I0
tp4337
a(I29
I1
I1
I0
tp4338
a(I5
I1
I1
I0
tp4339
a(I2
I1
I1
I1
tp4340
a(I11
I0
I0
I0
tp4341
a(I-1
I0
I0
I0
tp4342
a(I0
I0
I0
I0
tp4343
a(I19
I0
I0
I0
tp4344
a(I26
I0
I0
I0
tp4345
a(I2
I1
I1
I1
tp4346
a(I6
I0
I0
I0
tp4347
a(I11
I0
I0
I0
tp4348
a(I19
I0
I0
I0
tp4349
a(I29
I1
I1
I0
tp4350
a(I5
I1
I1
I0
tp4351
a(I2
I1
I1
I1
tp4352
a(I13
I0
I0
I0
tp4353
a(I12
I0
I0
I0
tp4354
a(I30
I0
I0
I0
tp4355
a(I5
I0
I0
I0
tp4356
a(I6
I0
I0
I0
tp4357
a(I12
I0
I0
I0
tp4358
a(I5
I0
I0
I0
tp4359
a(I18
I0
I0
I0
tp4360
a(I11
I0
I0
I0
tp4361
a(I11
I0
I0
I0
tp4362
a(I-1
I0
I0
I0
tp4363
a(I2
I1
I1
I1
tp4364
a(I11
I0
I0
I0
tp4365
a(I11
I0
I0
I0
tp4366
a(I-1
I0
I0
I0
tp4367
a(I19
I0
I0
I0
tp4368
a(I6
I0
I0
I0
tp4369
a(I5
I0
I0
I0
tp4370
a(I11
I0
I0
I0
tp4371
a(I11
I0
I0
I0
tp4372
a(I-1
I0
I0
I0
tp4373
a(I19
I0
I0
I0
tp4374
a(I27
I0
I0
I0
tp4375
a(I5
I0
I0
I0
tp4376
a(I2
I1
I1
I1
tp4377
a(I11
I0
I0
I0
tp4378
a(I11
I0
I0
I0
tp4379
a(I0
I0
I0
I0
tp4380
a(I29
I0
I0
I0
tp4381
a(I5
I0
I0
I0
tp4382
a(I17
I0
I0
I0
tp4383
a(I-1
I0
I0
I0
tp4384
a(I2
I1
I1
I1
tp4385
a(I11
I0
I0
I0
tp4386
a(I11
I0
I0
I0
tp4387
a(I-1
I0
I0
I0
tp4388
a(I5
I0
I0
I0
tp4389
a(I2
I1
I1
I1
tp4390
a(I11
I0
I0
I0
tp4391
a(I5
I0
I0
I0
tp4392
a(I2
I1
I1
I1
tp4393
a(I6
I0
I0
I0
tp4394
a(I11
I0
I0
I0
tp4395
a(I0
I0
I0
I0
tp4396
a(I11
I0
I0
I0
tp4397
a(I11
I0
I0
I0
tp4398
a(I11
I0
I0
I0
tp4399
a(I11
I0
I0
I0
tp4400
a(I-1
I0
I0
I0
tp4401
a(I2
I1
I1
I1
tp4402
a(I11
I0
I0
I0
tp4403
a(I11
I0
I0
I0
tp4404
a(I31
I0
I0
I0
tp4405
a(I19
I0
I0
I0
tp4406
a(I7
I0
I0
I0
tp4407
a(I31
I0
I0
I0
tp4408
a(I-1
I0
I0
I0
tp4409
a(I2
I0
I0
I0
tp4410
a(I6
I0
I0
I0
tp4411
a(I11
I0
I0
I0
tp4412
a(I31
I1
I1
I0
tp4413
a(I2
I1
I1
I1
tp4414
a(I11
I0
I0
I0
tp4415
a(I11
I0
I0
I0
tp4416
a(I-1
I0
I0
I0
tp4417
a(I19
I0
I0
I0
tp4418
a(I29
I1
I1
I0
tp4419
a(I5
I1
I1
I0
tp4420
a(I2
I1
I1
I1
tp4421
a(I12
I1
I1
I0
tp4422
a(I0
I0
I0
I0
tp4423
a(I33
I0
I0
I0
tp4424
a(I30
I0
I0
I0
tp4425
a(I19
I0
I0
I0
tp4426
a(I26
I0
I0
I0
tp4427
a(I5
I0
I0
I0
tp4428
a(I2
I1
I1
I1
tp4429
a(I11
I0
I0
I0
tp4430
a(I5
I0
I0
I0
tp4431
a(I18
I0
I0
I0
tp4432
a(I6
I0
I0
I0
tp4433
a(I11
I0
I0
I0
tp4434
a(I-1
I0
I0
I0
tp4435
a(lp4436
(I11
I1
I1
I1
tp4437
a(I12
I0
I0
I0
tp4438
a(I1
I0
I0
I0
tp4439
a(I11
I0
I0
I0
tp4440
a(I-1
I0
I0
I0
tp4441
a(I11
I0
I0
I0
tp4442
a(I-1
I0
I0
I0
tp4443
a(I0
I0
I0
I0
tp4444
a(I30
I0
I0
I0
tp4445
a(I2
I0
I0
I0
tp4446
a(I11
I0
I0
I0
tp4447
a(I11
I1
I1
I1
tp4448
a(I31
I0
I0
I0
tp4449
a(I29
I0
I0
I0
tp4450
a(I5
I0
I0
I0
tp4451
a(I11
I0
I0
I0
tp4452
a(I0
I0
I0
I0
tp4453
a(I11
I0
I0
I0
tp4454
a(I-1
I0
I0
I0
tp4455
a(I5
I0
I0
I0
tp4456
a(I6
I0
I0
I0
tp4457
a(I12
I0
I0
I0
tp4458
a(I-1
I0
I0
I0
tp4459
a(I6
I0
I0
I0
tp4460
a(I12
I0
I0
I0
tp4461
a(I5
I1
I1
I1
tp4462
a(I2
I0
I0
I0
tp4463
a(I6
I0
I0
I0
tp4464
a(I11
I0
I0
I0
tp4465
a(I11
I0
I0
I0
tp4466
a(I5
I1
I1
I1
tp4467
a(I13
I0
I0
I0
tp4468
a(I-1
I0
I0
I0
tp4469
a(I13
I0
I0
I0
tp4470
a(I-1
I0
I0
I0
tp4471
a(I0
I0
I0
I0
tp4472
a(I8
I0
I0
I0
tp4473
a(I-1
I0
I0
I0
tp4474
a(I11
I0
I0
I0
tp4475
a(I12
I0
I0
I0
tp4476
a(I5
I1
I1
I1
tp4477
a(I13
I0
I0
I0
tp4478
a(I-1
I0
I0
I0
tp4479
a(I13
I0
I0
I0
tp4480
a(I-1
I0
I0
I0
tp4481
a(I0
I0
I0
I0
tp4482
a(I11
I0
I0
I0
tp4483
a(I-1
I0
I0
I0
tp4484
a(I0
I0
I0
I0
tp4485
a(I6
I0
I0
I0
tp4486
a(I12
I0
I0
I0
tp4487
a(I5
I1
I1
I1
tp4488
a(I2
I0
I0
I0
tp4489
a(I11
I0
I0
I0
tp4490
a(I-1
I0
I0
I0
tp4491
a(I12
I0
I0
I0
tp4492
a(I30
I0
I0
I0
tp4493
a(I5
I1
I1
I1
tp4494
a(I11
I1
I1
I1
tp4495
a(I0
I0
I0
I0
tp4496
a(I11
I0
I0
I0
tp4497
a(I-1
I0
I0
I0
tp4498
a(I5
I0
I0
I0
tp4499
a(I11
I0
I0
I0
tp4500
a(I12
I0
I0
I0
tp4501
a(I5
I1
I1
I1
tp4502
a(I2
I0
I0
I0
tp4503
a(I6
I0
I0
I0
tp4504
a(I0
I0
I0
I0
tp4505
a(I6
I0
I0
I0
tp4506
a(I11
I0
I0
I0
tp4507
a(I0
I0
I0
I0
tp4508
a(I2
I0
I0
I0
tp4509
a(I6
I0
I0
I0
tp4510
a(I11
I0
I0
I0
tp4511
a(I-1
I0
I0
I0
tp4512
a(I5
I0
I0
I0
tp4513
a(I2
I0
I0
I0
tp4514
a(I12
I0
I0
I0
tp4515
a(I17
I0
I0
I0
tp4516
a(I30
I0
I0
I0
tp4517
a(I-1
I0
I0
I0
tp4518
a(I2
I0
I0
I0
tp4519
a(I6
I0
I0
I0
tp4520
a(I11
I0
I0
I0
tp4521
a(I5
I0
I0
I0
tp4522
a(I11
I1
I1
I1
tp4523
a(I5
I1
I1
I1
tp4524
a(I11
I1
I1
I1
tp4525
a(I31
I0
I0
I0
tp4526
a(I2
I0
I0
I0
tp4527
a(I11
I0
I0
I0
tp4528
a(I5
I1
I1
I1
tp4529
a(I11
I0
I0
I0
tp4530
a(I0
I0
I0
I0
tp4531
a(I6
I0
I0
I0
tp4532
a(I11
I0
I0
I0
tp4533
a(I-1
I0
I0
I0
tp4534
a(I0
I0
I0
I0
tp4535
a(I6
I0
I0
I0
tp4536
a(I12
I0
I0
I0
tp4537
a(I30
I0
I0
I0
tp4538
a(I6
I0
I0
I0
tp4539
a(I6
I0
I0
I0
tp4540
a(I12
I0
I0
I0
tp4541
a(I-1
I0
I0
I0
tp4542
a(I5
I0
I0
I0
tp4543
a(I11
I0
I0
I0
tp4544
a(I-1
I0
I0
I0
tp4545
a(I11
I0
I0
I0
tp4546
a(I-1
I0
I0
I0
tp4547
a(I17
I0
I0
I0
tp4548
a(I27
I0
I0
I0
tp4549
a(I-1
I0
I0
I0
tp4550
a(I0
I0
I0
I0
tp4551
a(I29
I0
I0
I0
tp4552
a(I-1
I0
I0
I0
tp4553
a(I-1
I0
I0
I0
tp4554
a(I11
I0
I0
I0
tp4555
a(I-1
I0
I0
I0
tp4556
a(I17
I0
I0
I0
tp4557
a(I27
I0
I0
I0
tp4558
a(I-1
I0
I0
I0
tp4559
a(I0
I0
I0
I0
tp4560
a(I29
I0
I0
I0
tp4561
a(I-1
I0
I0
I0
tp4562
a(I0
I0
I0
I0
tp4563
a(I11
I0
I0
I0
tp4564
a(I-1
I0
I0
I0
tp4565
a(I17
I0
I0
I0
tp4566
a(I27
I0
I0
I0
tp4567
a(I-1
I0
I0
I0
tp4568
a(I0
I0
I0
I0
tp4569
a(I29
I0
I0
I0
tp4570
a(I-1
I0
I0
I0
tp4571
a(I-1
I0
I0
I0
tp4572
a(lp4573
(I5
I0
I0
I0
tp4574
a(I2
I1
I1
I1
tp4575
a(I11
I0
I0
I0
tp4576
a(I5
I0
I0
I0
tp4577
a(I2
I0
I0
I0
tp4578
a(I6
I0
I0
I0
tp4579
a(I11
I0
I0
I0
tp4580
a(I-1
I0
I0
I0
tp4581
a(I2
I1
I1
I1
tp4582
a(I6
I1
I1
I1
tp4583
a(I12
I1
I1
I0
tp4584
a(I16
I1
I1
I1
tp4585
a(I11
I1
I1
I1
tp4586
a(I5
I0
I0
I0
tp4587
a(I1
I0
I0
I0
tp4588
a(I12
I0
I0
I0
tp4589
a(I5
I0
I0
I0
tp4590
a(I2
I1
I1
I1
tp4591
a(I6
I0
I0
I0
tp4592
a(I-1
I0
I0
I0
tp4593
a(I6
I0
I0
I0
tp4594
a(I0
I0
I0
I0
tp4595
a(I6
I0
I0
I0
tp4596
a(I12
I0
I0
I0
tp4597
a(I-1
I0
I0
I0
tp4598
a(I5
I0
I0
I0
tp4599
a(I2
I1
I1
I1
tp4600
a(I6
I0
I0
I0
tp4601
a(I12
I0
I0
I0
tp4602
a(I16
I1
I1
I1
tp4603
a(I11
I1
I1
I1
tp4604
a(I5
I0
I0
I0
tp4605
a(I2
I1
I1
I1
tp4606
a(I6
I0
I0
I0
tp4607
a(I12
I0
I0
I0
tp4608
a(I0
I0
I0
I0
tp4609
a(I2
I1
I1
I1
tp4610
a(I6
I0
I0
I0
tp4611
a(I12
I0
I0
I1
tp4612
a(I5
I0
I0
I0
tp4613
a(I11
I0
I0
I0
tp4614
a(I-1
I0
I0
I0
tp4615
a(I2
I1
I1
I1
tp4616
a(I6
I0
I0
I0
tp4617
a(I11
I0
I0
I0
tp4618
a(I5
I0
I0
I0
tp4619
a(I2
I1
I1
I1
tp4620
a(I12
I0
I0
I0
tp4621
a(I5
I0
I0
I0
tp4622
a(I2
I1
I1
I1
tp4623
a(I6
I0
I0
I0
tp4624
a(I11
I0
I0
I0
tp4625
a(I11
I0
I0
I0
tp4626
a(I19
I0
I0
I0
tp4627
a(I27
I0
I0
I0
tp4628
a(I5
I0
I0
I0
tp4629
a(I2
I1
I1
I1
tp4630
a(I11
I0
I0
I0
tp4631
a(I12
I0
I0
I0
tp4632
a(I16
I1
I1
I1
tp4633
a(I11
I1
I1
I1
tp4634
a(I5
I0
I0
I0
tp4635
a(I1
I0
I0
I0
tp4636
a(I0
I0
I0
I0
tp4637
a(I1
I0
I0
I0
tp4638
a(I-1
I0
I0
I0
tp4639
a(I17
I0
I0
I0
tp4640
a(I27
I0
I0
I0
tp4641
a(I19
I0
I0
I0
tp4642
a(I5
I0
I0
I0
tp4643
a(I11
I0
I0
I0
tp4644
a(I-1
I0
I0
I0
tp4645
a(I28
I0
I0
I0
tp4646
a(I5
I0
I0
I0
tp4647
a(I1
I0
I0
I0
tp4648
a(I11
I0
I0
I0
tp4649
a(I0
I0
I0
I0
tp4650
a(I1
I0
I0
I0
tp4651
a(I11
I0
I0
I0
tp4652
a(I5
I0
I0
I0
tp4653
a(I18
I0
I0
I0
tp4654
a(I11
I0
I0
I0
tp4655
a(I-1
I0
I0
I0
tp4656
a(I2
I1
I1
I1
tp4657
a(I6
I0
I0
I0
tp4658
a(I12
I0
I0
I0
tp4659
a(I5
I0
I0
I0
tp4660
a(I2
I1
I1
I1
tp4661
a(I11
I0
I0
I0
tp4662
a(I5
I0
I0
I0
tp4663
a(I11
I0
I0
I0
tp4664
a(I-1
I0
I0
I0
tp4665
a(I32
I0
I0
I0
tp4666
a(I27
I0
I0
I0
tp4667
a(I2
I1
I1
I1
tp4668
a(I6
I0
I0
I0
tp4669
a(I12
I0
I0
I0
tp4670
a(I16
I1
I1
I1
tp4671
a(I11
I1
I1
I1
tp4672
a(I-1
I0
I0
I0
tp4673
a(I27
I0
I0
I0
tp4674
a(I-1
I0
I0
I0
tp4675
a(lp4676
(I2
I1
I1
I1
tp4677
a(I11
I0
I0
I0
tp4678
a(I17
I0
I0
I0
tp4679
a(I31
I1
I1
I0
tp4680
a(I19
I0
I0
I0
tp4681
a(I-1
I0
I0
I0
tp4682
a(I5
I0
I0
I0
tp4683
a(I19
I0
I0
I0
tp4684
a(I19
I0
I0
I0
tp4685
a(I19
I0
I0
I0
tp4686
a(I-1
I0
I0
I0
tp4687
a(I5
I0
I0
I0
tp4688
a(I11
I0
I0
I0
tp4689
a(I-1
I0
I0
I0
tp4690
a(I2
I1
I1
I1
tp4691
a(I11
I0
I0
I0
tp4692
a(I31
I1
I1
I0
tp4693
a(I27
I0
I0
I0
tp4694
a(I24
I0
I0
I0
tp4695
a(I26
I0
I0
I0
tp4696
a(I5
I0
I0
I0
tp4697
a(I1
I0
I0
I0
tp4698
a(I12
I0
I0
I0
tp4699
a(I-1
I0
I0
I0
tp4700
a(I2
I1
I1
I1
tp4701
a(I12
I0
I0
I0
tp4702
a(I30
I0
I0
I0
tp4703
a(I-1
I0
I0
I0
tp4704
a(I0
I0
I0
I0
tp4705
a(I19
I0
I0
I0
tp4706
a(I30
I0
I0
I0
tp4707
a(I12
I0
I0
I0
tp4708
a(I26
I0
I0
I0
tp4709
a(I-1
I0
I0
I0
tp4710
a(I19
I0
I0
I0
tp4711
a(I11
I0
I0
I0
tp4712
a(I-1
I0
I0
I0
tp4713
a(I6
I0
I0
I0
tp4714
a(I11
I1
I1
I1
tp4715
a(I-1
I0
I0
I0
tp4716
a(I11
I0
I0
I0
tp4717
a(I11
I0
I0
I0
tp4718
a(I-1
I0
I0
I0
tp4719
a(I6
I0
I0
I0
tp4720
a(I11
I0
I0
I0
tp4721
a(I-1
I0
I0
I0
tp4722
a(I11
I0
I0
I0
tp4723
a(I-1
I0
I0
I0
tp4724
a(I0
I0
I0
I0
tp4725
a(I2
I1
I1
I1
tp4726
a(I6
I0
I0
I0
tp4727
a(I11
I0
I0
I0
tp4728
a(I11
I0
I0
I0
tp4729
a(I-1
I0
I0
I0
tp4730
a(I2
I1
I1
I1
tp4731
a(I11
I0
I0
I0
tp4732
a(I-1
I0
I0
I0
tp4733
a(I11
I0
I0
I0
tp4734
a(I11
I0
I0
I0
tp4735
a(I-1
I0
I0
I0
tp4736
a(I0
I0
I0
I0
tp4737
a(I11
I0
I0
I0
tp4738
a(I11
I0
I0
I0
tp4739
a(I12
I0
I0
I0
tp4740
a(I30
I0
I0
I0
tp4741
a(I19
I0
I0
I0
tp4742
a(I29
I0
I0
I0
tp4743
a(I5
I0
I0
I0
tp4744
a(I12
I0
I0
I0
tp4745
a(I19
I0
I0
I0
tp4746
a(I19
I0
I0
I0
tp4747
a(I-1
I0
I0
I0
tp4748
a(I6
I0
I0
I0
tp4749
a(I5
I0
I0
I0
tp4750
a(I2
I1
I1
I1
tp4751
a(I8
I0
I0
I0
tp4752
a(I12
I0
I0
I0
tp4753
a(I30
I0
I0
I0
tp4754
a(I5
I0
I0
I0
tp4755
a(I2
I1
I1
I1
tp4756
a(I11
I0
I0
I0
tp4757
a(I11
I0
I0
I0
tp4758
a(I-1
I0
I0
I0
tp4759
a(I5
I0
I0
I0
tp4760
a(I11
I0
I0
I0
tp4761
a(I11
I0
I0
I0
tp4762
a(I-1
I0
I0
I0
tp4763
a(I19
I0
I0
I0
tp4764
a(I11
I0
I0
I0
tp4765
a(I-1
I0
I0
I0
tp4766
a(I0
I0
I0
I0
tp4767
a(I11
I0
I0
I0
tp4768
a(I11
I0
I0
I0
tp4769
a(I19
I0
I0
I0
tp4770
a(I28
I0
I0
I0
tp4771
a(I11
I0
I0
I0
tp4772
a(I5
I0
I0
I0
tp4773
a(I2
I0
I0
I0
tp4774
a(I11
I0
I0
I0
tp4775
a(I5
I0
I0
I0
tp4776
a(I2
I0
I0
I0
tp4777
a(I11
I0
I0
I0
tp4778
a(I5
I0
I0
I0
tp4779
a(I11
I0
I0
I0
tp4780
a(I11
I0
I0
I0
tp4781
a(I0
I0
I0
I0
tp4782
a(I26
I0
I0
I0
tp4783
a(I11
I0
I0
I0
tp4784
a(I-1
I0
I0
I0
tp4785
a(I2
I1
I1
I1
tp4786
a(I11
I0
I0
I0
tp4787
a(I5
I1
I1
I1
tp4788
a(I2
I1
I1
I1
tp4789
a(I11
I0
I0
I0
tp4790
a(I5
I0
I0
I0
tp4791
a(I6
I0
I0
I0
tp4792
a(I11
I0
I0
I0
tp4793
a(I0
I0
I0
I0
tp4794
a(I11
I0
I0
I0
tp4795
a(I11
I0
I0
I0
tp4796
a(I31
I1
I1
I0
tp4797
a(I6
I0
I0
I0
tp4798
a(I-1
I0
I0
I0
tp4799
a(I2
I1
I1
I1
tp4800
a(I11
I0
I0
I0
tp4801
a(I5
I0
I0
I0
tp4802
a(I1
I0
I0
I0
tp4803
a(I5
I0
I0
I0
tp4804
a(I2
I1
I1
I1
tp4805
a(I6
I0
I0
I0
tp4806
a(I11
I0
I0
I0
tp4807
a(I12
I0
I0
I0
tp4808
a(I32
I0
I0
I0
tp4809
a(I27
I0
I0
I0
tp4810
a(I2
I1
I1
I1
tp4811
a(I11
I0
I0
I0
tp4812
a(I5
I0
I0
I0
tp4813
a(I2
I1
I1
I1
tp4814
a(I11
I0
I0
I0
tp4815
a(I11
I0
I0
I0
tp4816
a(I-1
I0
I0
I0
tp4817
a(I2
I1
I1
I1
tp4818
a(I11
I0
I0
I0
tp4819
a(I5
I0
I0
I0
tp4820
a(I2
I1
I1
I1
tp4821
a(I11
I0
I0
I0
tp4822
a(I11
I0
I0
I0
tp4823
a(I27
I0
I0
I0
tp4824
a(I19
I0
I0
I0
tp4825
a(I29
I0
I0
I0
tp4826
a(I5
I0
I0
I0
tp4827
a(I2
I1
I1
I1
tp4828
a(I11
I0
I0
I0
tp4829
a(I5
I0
I0
I0
tp4830
a(I2
I0
I0
I0
tp4831
a(I11
I0
I0
I0
tp4832
a(I0
I0
I0
I0
tp4833
a(I2
I1
I1
I1
tp4834
a(I6
I0
I0
I0
tp4835
a(I11
I0
I0
I0
tp4836
a(I11
I0
I0
I0
tp4837
a(I-1
I0
I0
I0
tp4838
a(I29
I0
I0
I0
tp4839
a(I1
I0
I0
I0
tp4840
a(I-1
I0
I0
I0
tp4841
a(I5
I0
I0
I0
tp4842
a(I2
I1
I1
I1
tp4843
a(I11
I0
I0
I0
tp4844
a(I5
I0
I0
I0
tp4845
a(I2
I1
I1
I1
tp4846
a(I11
I0
I0
I0
tp4847
a(I16
I0
I0
I0
tp4848
a(I6
I0
I0
I0
tp4849
a(I6
I0
I0
I0
tp4850
a(I11
I0
I0
I0
tp4851
a(I-1
I0
I0
I0
tp4852
a(I2
I1
I1
I1
tp4853
a(I11
I0
I0
I0
tp4854
a(I5
I0
I0
I0
tp4855
a(I2
I1
I1
I1
tp4856
a(I6
I0
I0
I0
tp4857
a(I11
I0
I0
I0
tp4858
a(I-1
I0
I0
I0
tp4859
a(I2
I1
I1
I1
tp4860
a(I8
I1
I1
I0
tp4861
a(I11
I0
I0
I0
tp4862
a(I5
I0
I0
I0
tp4863
a(I11
I0
I0
I0
tp4864
a(I12
I0
I0
I0
tp4865
a(I31
I1
I1
I0
tp4866
a(I5
I0
I0
I0
tp4867
a(I6
I0
I0
I0
tp4868
a(I11
I0
I0
I0
tp4869
a(I5
I1
I1
I1
tp4870
a(I6
I0
I0
I0
tp4871
a(I11
I1
I1
I1
tp4872
a(I-1
I0
I0
I0
tp4873
a(I32
I0
I0
I0
tp4874
a(I31
I1
I1
I0
tp4875
a(I19
I0
I0
I0
tp4876
a(I29
I0
I0
I0
tp4877
a(I5
I0
I0
I0
tp4878
a(I1
I0
I0
I0
tp4879
a(I6
I0
I0
I0
tp4880
a(I11
I0
I0
I0
tp4881
a(I0
I0
I0
I0
tp4882
a(I11
I0
I0
I0
tp4883
a(I6
I0
I0
I0
tp4884
a(I11
I0
I0
I0
tp4885
a(I6
I0
I0
I0
tp4886
a(I6
I0
I0
I0
tp4887
a(I12
I0
I0
I0
tp4888
a(I30
I0
I0
I0
tp4889
a(I6
I0
I0
I0
tp4890
a(I11
I0
I0
I0
tp4891
a(I-1
I0
I0
I0
tp4892
a(I11
I0
I0
I0
tp4893
a(I11
I0
I0
I0
tp4894
a(I-1
I0
I0
I0
tp4895
a(I6
I0
I0
I0
tp4896
a(I11
I0
I0
I0
tp4897
a(I-1
I0
I0
I0
tp4898
a(I11
I0
I0
I0
tp4899
a(I11
I0
I0
I0
tp4900
a(I-1
I0
I0
I0
tp4901
a(I11
I0
I0
I0
tp4902
a(I-1
I0
I0
I0
tp4903
a(I11
I0
I0
I0
tp4904
a(I11
I0
I0
I0
tp4905
a(I0
I0
I0
I0
tp4906
a(I11
I0
I0
I0
tp4907
a(I-1
I0
I0
I0
tp4908
a(lp4909
(I2
I1
I1
I1
tp4910
a(I6
I0
I0
I0
tp4911
a(I6
I0
I0
I0
tp4912
a(I11
I1
I1
I1
tp4913
a(I5
I0
I0
I0
tp4914
a(I2
I1
I1
I1
tp4915
a(I11
I1
I1
I1
tp4916
a(I31
I0
I0
I0
tp4917
a(I19
I1
I1
I1
tp4918
a(I6
I0
I0
I0
tp4919
a(I-1
I0
I0
I0
tp4920
a(I0
I0
I0
I0
tp4921
a(I11
I0
I0
I0
tp4922
a(I12
I0
I0
I0
tp4923
a(I30
I0
I0
I0
tp4924
a(I19
I0
I0
I0
tp4925
a(I29
I0
I0
I0
tp4926
a(I5
I0
I0
I0
tp4927
a(I6
I0
I0
I0
tp4928
a(I-1
I0
I0
I0
tp4929
a(I6
I0
I0
I0
tp4930
a(I12
I0
I0
I0
tp4931
a(I30
I0
I0
I0
tp4932
a(I29
I0
I0
I0
tp4933
a(I19
I0
I0
I0
tp4934
a(I-1
I0
I0
I0
tp4935
a(I11
I0
I0
I0
tp4936
a(I31
I0
I0
I0
tp4937
a(I29
I0
I0
I0
tp4938
a(I-1
I0
I0
I0
tp4939
a(I5
I0
I0
I0
tp4940
a(I19
I0
I0
I0
tp4941
a(I19
I0
I0
I0
tp4942
a(I-1
I0
I0
I0
tp4943
a(I5
I0
I0
I0
tp4944
a(I11
I0
I0
I0
tp4945
a(I5
I0
I0
I0
tp4946
a(I2
I1
I1
I1
tp4947
a(I11
I0
I0
I0
tp4948
a(I-1
I0
I0
I0
tp4949
a(I6
I0
I0
I0
tp4950
a(I-1
I0
I0
I0
tp4951
a(I5
I0
I0
I0
tp4952
a(I6
I0
I0
I0
tp4953
a(I6
I0
I0
I0
tp4954
a(I12
I0
I0
I0
tp4955
a(I-1
I0
I0
I0
tp4956
a(I0
I0
I0
I0
tp4957
a(I5
I0
I0
I0
tp4958
a(I6
I0
I0
I0
tp4959
a(I12
I0
I0
I0
tp4960
a(I-1
I0
I0
I0
tp4961
a(I11
I0
I0
I0
tp4962
a(I5
I0
I0
I0
tp4963
a(I6
I0
I0
I0
tp4964
a(I6
I0
I0
I0
tp4965
a(I12
I0
I0
I0
tp4966
a(I0
I0
I0
I0
tp4967
a(I5
I0
I0
I0
tp4968
a(I6
I0
I0
I0
tp4969
a(I12
I0
I0
I0
tp4970
a(I31
I0
I0
I0
tp4971
a(I19
I0
I0
I0
tp4972
a(I5
I0
I0
I0
tp4973
a(I18
I0
I0
I0
tp4974
a(I6
I0
I0
I0
tp4975
a(I11
I1
I1
I1
tp4976
a(I-1
I0
I0
I0
tp4977
a(I0
I0
I0
I0
tp4978
a(I2
I1
I1
I1
tp4979
a(I6
I1
I1
I1
tp4980
a(I11
I0
I0
I0
tp4981
a(I31
I0
I0
I0
tp4982
a(I19
I0
I0
I0
tp4983
a(I6
I0
I0
I0
tp4984
a(I-1
I0
I0
I0
tp4985
a(I6
I0
I0
I0
tp4986
a(I12
I0
I0
I0
tp4987
a(I6
I0
I0
I0
tp4988
a(I5
I0
I0
I0
tp4989
a(I2
I1
I1
I1
tp4990
a(I6
I0
I0
I0
tp4991
a(I11
I0
I0
I0
tp4992
a(I30
I0
I0
I0
tp4993
a(I5
I0
I0
I0
tp4994
a(I2
I1
I1
I1
tp4995
a(I6
I0
I0
I0
tp4996
a(I12
I0
I0
I1
tp4997
a(I5
I0
I0
I0
tp4998
a(I2
I1
I1
I1
tp4999
a(I11
I0
I0
I0
tp5000
a(I-1
I0
I0
I0
tp5001
a(lp5002
(I5
I0
I0
I0
tp5003
a(I1
I0
I0
I0
tp5004
a(I5
I0
I0
I0
tp5005
a(I1
I0
I0
I0
tp5006
a(I-1
I0
I0
I0
tp5007
a(I2
I1
I1
I1
tp5008
a(I6
I0
I0
I0
tp5009
a(I11
I0
I0
I0
tp5010
a(I27
I0
I0
I0
tp5011
a(I28
I1
I1
I0
tp5012
a(I24
I0
I0
I0
tp5013
a(I26
I1
I1
I1
tp5014
a(I2
I0
I0
I0
tp5015
a(I27
I0
I0
I0
tp5016
a(I19
I0
I0
I0
tp5017
a(I29
I0
I0
I0
tp5018
a(I29
I0
I0
I0
tp5019
a(I5
I0
I0
I0
tp5020
a(I2
I1
I1
I1
tp5021
a(I17
I0
I0
I0
tp5022
a(I11
I0
I0
I0
tp5023
a(I-1
I0
I0
I0
tp5024
a(I19
I0
I0
I0
tp5025
a(I5
I0
I0
I0
tp5026
a(I2
I1
I1
I1
tp5027
a(I29
I0
I0
I0
tp5028
a(I12
I0
I0
I0
tp5029
a(I5
I0
I0
I0
tp5030
a(I2
I1
I1
I1
tp5031
a(I6
I1
I1
I1
tp5032
a(I29
I0
I0
I0
tp5033
a(I6
I0
I0
I0
tp5034
a(I11
I0
I0
I0
tp5035
a(I12
I0
I0
I0
tp5036
a(I32
I0
I0
I0
tp5037
a(I30
I0
I0
I0
tp5038
a(I29
I0
I0
I0
tp5039
a(I12
I0
I0
I0
tp5040
a(I0
I0
I0
I0
tp5041
a(I6
I0
I0
I0
tp5042
a(I12
I0
I0
I0
tp5043
a(I-1
I0
I0
I0
tp5044
a(I5
I1
I1
I1
tp5045
a(I2
I0
I0
I0
tp5046
a(I11
I0
I0
I0
tp5047
a(I5
I0
I0
I0
tp5048
a(I2
I1
I1
I1
tp5049
a(I6
I0
I0
I0
tp5050
a(I5
I0
I0
I0
tp5051
a(I11
I0
I0
I0
tp5052
a(I5
I0
I0
I0
tp5053
a(I6
I0
I0
I0
tp5054
a(I12
I0
I0
I0
tp5055
a(I19
I0
I0
I0
tp5056
a(I12
I0
I0
I0
tp5057
a(I24
I0
I0
I0
tp5058
a(I26
I0
I0
I0
tp5059
a(I-1
I0
I0
I0
tp5060
a(I2
I1
I1
I1
tp5061
a(I11
I0
I0
I0
tp5062
a(I27
I0
I0
I0
tp5063
a(I17
I0
I0
I0
tp5064
a(I27
I0
I0
I0
tp5065
a(I29
I0
I0
I0
tp5066
a(I5
I0
I0
I0
tp5067
a(I6
I1
I1
I1
tp5068
a(I13
I0
I0
I0
tp5069
a(I11
I0
I0
I0
tp5070
a(I11
I0
I0
I0
tp5071
a(I5
I0
I0
I0
tp5072
a(I11
I0
I0
I0
tp5073
a(I13
I0
I0
I0
tp5074
a(I6
I0
I0
I0
tp5075
a(I11
I0
I0
I0
tp5076
a(I11
I0
I0
I0
tp5077
a(I11
I0
I0
I0
tp5078
a(I31
I0
I0
I0
tp5079
a(I-1
I0
I0
I0
tp5080
a(I18
I0
I0
I0
tp5081
a(I-1
I0
I0
I0
tp5082
a(I11
I0
I0
I0
tp5083
a(I13
I0
I0
I0
tp5084
a(I27
I0
I0
I0
tp5085
a(I6
I0
I0
I0
tp5086
a(I11
I0
I0
I0
tp5087
a(I11
I0
I0
I0
tp5088
a(I11
I0
I0
I0
tp5089
a(I-1
I0
I0
I0
tp5090
a(I19
I0
I0
I0
tp5091
a(I28
I0
I0
I0
tp5092
a(I2
I1
I1
I1
tp5093
a(I6
I0
I0
I0
tp5094
a(I11
I0
I0
I0
tp5095
a(I-1
I0
I0
I0
tp5096
a(I32
I0
I0
I0
tp5097
a(I31
I0
I0
I0
tp5098
a(I2
I1
I1
I1
tp5099
a(I11
I0
I0
I0
tp5100
a(I5
I0
I0
I0
tp5101
a(I6
I0
I0
I0
tp5102
a(I12
I0
I0
I0
tp5103
a(I27
I0
I0
I0
tp5104
a(I24
I0
I0
I0
tp5105
a(I26
I0
I0
I0
tp5106
a(I12
I0
I0
I0
tp5107
a(I32
I0
I0
I0
tp5108
a(I30
I0
I0
I0
tp5109
a(I0
I0
I0
I0
tp5110
a(I26
I0
I0
I0
tp5111
a(I11
I0
I0
I0
tp5112
a(I5
I1
I1
I1
tp5113
a(I28
I0
I0
I0
tp5114
a(I2
I0
I0
I0
tp5115
a(I11
I0
I0
I0
tp5116
a(I5
I0
I0
I0
tp5117
a(I6
I0
I0
I0
tp5118
a(I11
I0
I0
I0
tp5119
a(I5
I0
I0
I0
tp5120
a(I11
I0
I0
I0
tp5121
a(I-1
I0
I0
I0
tp5122
a(lp5123
(I2
I0
I0
I0
tp5124
a(I12
I0
I0
I0
tp5125
a(I5
I0
I0
I0
tp5126
a(I11
I0
I0
I0
tp5127
a(I12
I0
I0
I0
tp5128
a(I5
I0
I0
I0
tp5129
a(I11
I0
I0
I0
tp5130
a(I-1
I0
I0
I0
tp5131
a(I11
I0
I0
I0
tp5132
a(I-1
I0
I0
I0
tp5133
a(I30
I0
I0
I0
tp5134
a(I2
I0
I0
I0
tp5135
a(I11
I0
I0
I0
tp5136
a(I11
I0
I0
I0
tp5137
a(I24
I0
I0
I0
tp5138
a(I26
I0
I0
I0
tp5139
a(I19
I0
I0
I0
tp5140
a(I35
I0
I0
I0
tp5141
a(I2
I0
I0
I0
tp5142
a(I11
I0
I0
I0
tp5143
a(I31
I0
I0
I0
tp5144
a(I29
I0
I0
I0
tp5145
a(I5
I0
I0
I0
tp5146
a(I11
I1
I1
I1
tp5147
a(I24
I0
I0
I0
tp5148
a(I2
I0
I0
I0
tp5149
a(I11
I0
I0
I0
tp5150
a(I28
I0
I0
I0
tp5151
a(I11
I0
I0
I0
tp5152
a(I-1
I0
I0
I0
tp5153
a(I5
I0
I0
I0
tp5154
a(I2
I0
I0
I0
tp5155
a(I6
I0
I0
I0
tp5156
a(I11
I0
I0
I0
tp5157
a(I5
I0
I0
I0
tp5158
a(I12
I1
I1
I0
tp5159
a(I30
I1
I1
I0
tp5160
a(I6
I0
I0
I0
tp5161
a(I5
I0
I0
I0
tp5162
a(I11
I1
I1
I1
tp5163
a(I-1
I0
I0
I0
tp5164
a(I12
I0
I0
I0
tp5165
a(I30
I1
I1
I0
tp5166
a(I19
I1
I1
I1
tp5167
a(I6
I0
I0
I0
tp5168
a(I5
I0
I0
I0
tp5169
a(I2
I0
I0
I0
tp5170
a(I31
I1
I1
I0
tp5171
a(I6
I0
I0
I0
tp5172
a(I5
I0
I0
I0
tp5173
a(I2
I0
I0
I0
tp5174
a(I5
I0
I0
I0
tp5175
a(I6
I0
I0
I0
tp5176
a(I12
I0
I0
I0
tp5177
a(I30
I1
I1
I0
tp5178
a(I6
I0
I0
I0
tp5179
a(I5
I0
I0
I0
tp5180
a(I11
I1
I1
I1
tp5181
a(I-1
I0
I0
I0
tp5182
a(I-1
I0
I0
I0
tp5183
a(I6
I0
I0
I0
tp5184
a(I12
I1
I1
I0
tp5185
a(I30
I1
I1
I0
tp5186
a(I19
I1
I1
I1
tp5187
a(I6
I1
I1
I1
tp5188
a(I5
I0
I0
I0
tp5189
a(I11
I1
I1
I1
tp5190
a(I-1
I0
I0
I0
tp5191
a(I2
I0
I0
I0
tp5192
a(I31
I0
I0
I0
tp5193
a(I5
I0
I0
I0
tp5194
a(I2
I0
I0
I0
tp5195
a(I6
I0
I0
I0
tp5196
a(I-1
I0
I0
I0
tp5197
a(I11
I0
I0
I0
tp5198
a(I-1
I0
I0
I0
tp5199
a(I11
I0
I0
I0
tp5200
a(I31
I0
I0
I0
tp5201
a(I6
I0
I0
I0
tp5202
a(I24
I0
I0
I0
tp5203
a(I26
I0
I0
I0
tp5204
a(I1
I0
I0
I0
tp5205
a(I6
I0
I0
I0
tp5206
a(I12
I0
I0
I0
tp5207
a(I0
I0
I0
I0
tp5208
a(I1
I0
I0
I0
tp5209
a(I0
I0
I0
I0
tp5210
a(I7
I0
I0
I0
tp5211
a(I12
I1
I1
I0
tp5212
a(I24
I0
I0
I0
tp5213
a(I26
I0
I0
I0
tp5214
a(I6
I0
I0
I0
tp5215
a(I12
I0
I0
I0
tp5216
a(I-1
I0
I0
I0
tp5217
a(lp5218
(I6
I0
I0
I0
tp5219
a(I6
I1
I1
I1
tp5220
a(I0
I0
I0
I0
tp5221
a(I6
I1
I1
I1
tp5222
a(I12
I0
I0
I0
tp5223
a(I30
I0
I0
I0
tp5224
a(I19
I0
I0
I0
tp5225
a(I29
I0
I0
I0
tp5226
a(I2
I0
I0
I0
tp5227
a(I11
I0
I0
I0
tp5228
a(I2
I0
I0
I0
tp5229
a(I11
I0
I0
I0
tp5230
a(I5
I0
I0
I0
tp5231
a(I11
I0
I0
I0
tp5232
a(I-1
I0
I0
I0
tp5233
a(I13
I0
I0
I0
tp5234
a(I0
I1
I1
I1
tp5235
a(I27
I0
I0
I0
tp5236
a(I1
I0
I0
I0
tp5237
a(I12
I0
I0
I0
tp5238
a(I5
I0
I0
I0
tp5239
a(I17
I0
I0
I0
tp5240
a(I-1
I0
I0
I0
tp5241
a(I12
I0
I0
I0
tp5242
a(I-1
I0
I0
I0
tp5243
a(I11
I0
I0
I0
tp5244
a(I-1
I0
I0
I0
tp5245
a(I-1
I0
I0
I0
tp5246
a(I12
I0
I0
I0
tp5247
a(I-1
I0
I0
I0
tp5248
a(I11
I0
I0
I0
tp5249
a(I-1
I0
I0
I0
tp5250
a(I-1
I0
I0
I0
tp5251
a(I11
I0
I0
I0
tp5252
a(I-1
I0
I0
I0
tp5253
a(I0
I1
I1
I1
tp5254
a(I11
I0
I0
I0
tp5255
a(I-1
I0
I0
I0
tp5256
a(I2
I0
I0
I0
tp5257
a(I6
I0
I0
I0
tp5258
a(I1
I0
I0
I0
tp5259
a(I28
I0
I0
I0
tp5260
a(I29
I0
I0
I0
tp5261
a(I19
I0
I0
I0
tp5262
a(I5
I1
I1
I0
tp5263
a(I2
I0
I0
I0
tp5264
a(I11
I0
I0
I0
tp5265
a(I5
I0
I0
I0
tp5266
a(I2
I0
I0
I0
tp5267
a(I11
I0
I0
I0
tp5268
a(I5
I0
I0
I0
tp5269
a(I29
I0
I0
I0
tp5270
a(I11
I0
I0
I0
tp5271
a(I12
I0
I0
I0
tp5272
a(I-1
I0
I0
I0
tp5273
a(I6
I0
I0
I0
tp5274
a(I12
I0
I0
I0
tp5275
a(I30
I0
I0
I0
tp5276
a(I29
I0
I0
I0
tp5277
a(I6
I0
I0
I0
tp5278
a(I12
I0
I0
I0
tp5279
a(I5
I0
I0
I0
tp5280
a(I2
I0
I0
I0
tp5281
a(I11
I0
I0
I0
tp5282
a(I5
I0
I0
I0
tp5283
a(I12
I0
I0
I0
tp5284
a(I29
I0
I0
I0
tp5285
a(I5
I0
I0
I0
tp5286
a(I6
I0
I0
I0
tp5287
a(I11
I0
I0
I0
tp5288
a(I0
I1
I1
I1
tp5289
a(I6
I0
I0
I0
tp5290
a(I12
I0
I0
I0
tp5291
a(I-1
I0
I0
I0
tp5292
a(I2
I0
I0
I0
tp5293
a(I6
I0
I0
I0
tp5294
a(I11
I0
I0
I0
tp5295
a(I31
I0
I0
I0
tp5296
a(I5
I0
I0
I0
tp5297
a(I2
I0
I0
I0
tp5298
a(I11
I0
I0
I0
tp5299
a(I30
I1
I1
I0
tp5300
a(I6
I0
I0
I0
tp5301
a(I-1
I0
I0
I0
tp5302
a(I35
I0
I0
I0
tp5303
a(I2
I0
I0
I0
tp5304
a(I6
I0
I0
I0
tp5305
a(I6
I0
I0
I0
tp5306
a(I11
I0
I0
I0
tp5307
a(I27
I0
I0
I0
tp5308
a(I19
I0
I0
I0
tp5309
a(I2
I0
I0
I0
tp5310
a(I11
I0
I0
I0
tp5311
a(I5
I0
I0
I0
tp5312
a(I2
I0
I0
I0
tp5313
a(I11
I0
I0
I0
tp5314
a(I-1
I0
I0
I0
tp5315
a(I-1
I0
I0
I0
tp5316
a(I5
I0
I0
I0
tp5317
a(I2
I0
I0
I0
tp5318
a(I11
I0
I0
I0
tp5319
a(I31
I0
I0
I0
tp5320
a(I28
I0
I0
I0
tp5321
a(I6
I0
I0
I0
tp5322
a(I6
I0
I0
I0
tp5323
a(I12
I0
I0
I0
tp5324
a(I5
I0
I0
I0
tp5325
a(I2
I0
I0
I0
tp5326
a(I11
I0
I0
I0
tp5327
a(I-1
I0
I0
I0
tp5328
a(I6
I0
I0
I0
tp5329
a(I5
I0
I0
I0
tp5330
a(I2
I0
I0
I0
tp5331
a(I6
I0
I0
I0
tp5332
a(I6
I1
I1
I1
tp5333
a(I11
I0
I0
I0
tp5334
a(I30
I0
I0
I0
tp5335
a(I29
I0
I0
I0
tp5336
a(I29
I0
I0
I0
tp5337
a(I24
I0
I0
I0
tp5338
a(I26
I0
I0
I0
tp5339
a(I6
I0
I0
I0
tp5340
a(I-1
I0
I0
I0
tp5341
a(I5
I0
I0
I0
tp5342
a(I19
I0
I0
I0
tp5343
a(I5
I0
I0
I0
tp5344
a(I28
I0
I0
I0
tp5345
a(I12
I0
I0
I0
tp5346
a(I5
I0
I0
I0
tp5347
a(I11
I0
I0
I0
tp5348
a(I-1
I0
I0
I0
tp5349
a(I11
I0
I0
I0
tp5350
a(I-1
I0
I0
I0
tp5351
a(I0
I1
I1
I1
tp5352
a(I11
I0
I0
I0
tp5353
a(I-1
I0
I0
I0
tp5354
a(I17
I0
I0
I0
tp5355
a(I31
I0
I0
I0
tp5356
a(I29
I0
I0
I0
tp5357
a(I19
I0
I0
I0
tp5358
a(I24
I0
I0
I0
tp5359
a(I26
I0
I0
I0
tp5360
a(I6
I0
I0
I0
tp5361
a(I12
I0
I0
I0
tp5362
a(I-1
I0
I0
I0
tp5363
a(I5
I0
I0
I0
tp5364
a(I32
I0
I0
I0
tp5365
a(I2
I0
I0
I0
tp5366
a(I6
I0
I0
I0
tp5367
a(I6
I0
I0
I0
tp5368
a(I11
I0
I0
I0
tp5369
a(I31
I0
I0
I0
tp5370
a(I2
I0
I0
I0
tp5371
a(I11
I0
I0
I0
tp5372
a(I5
I0
I0
I0
tp5373
a(I2
I0
I0
I0
tp5374
a(I11
I0
I0
I0
tp5375
a(I-1
I0
I0
I0
tp5376
a(I-1
I0
I0
I0
tp5377
a(I2
I0
I0
I0
tp5378
a(I6
I0
I0
I0
tp5379
a(I31
I0
I0
I0
tp5380
a(I2
I0
I0
I0
tp5381
a(I6
I0
I0
I0
tp5382
a(I6
I0
I0
I0
tp5383
a(I12
I0
I0
I0
tp5384
a(I5
I0
I0
I0
tp5385
a(I2
I0
I0
I0
tp5386
a(I11
I0
I0
I0
tp5387
a(I-1
I0
I0
I0
tp5388
a(lp5389
(I5
I0
I0
I0
tp5390
a(I1
I0
I0
I0
tp5391
a(I2
I0
I0
I0
tp5392
a(I11
I0
I0
I0
tp5393
a(I-1
I0
I0
I0
tp5394
a(I29
I0
I0
I0
tp5395
a(I5
I0
I0
I0
tp5396
a(I11
I0
I0
I0
tp5397
a(I11
I0
I0
I0
tp5398
a(I-1
I0
I0
I0
tp5399
a(I27
I0
I0
I0
tp5400
a(I2
I1
I1
I1
tp5401
a(I6
I0
I0
I0
tp5402
a(I11
I0
I0
I0
tp5403
a(I5
I0
I0
I0
tp5404
a(I2
I0
I0
I0
tp5405
a(I19
I0
I0
I0
tp5406
a(I29
I0
I0
I0
tp5407
a(I6
I0
I0
I0
tp5408
a(I11
I0
I0
I0
tp5409
a(I6
I0
I0
I0
tp5410
a(I11
I0
I0
I0
tp5411
a(I5
I0
I0
I0
tp5412
a(I11
I0
I0
I0
tp5413
a(I-1
I0
I0
I0
tp5414
a(I26
I1
I1
I1
tp5415
a(I11
I0
I0
I0
tp5416
a(I27
I0
I0
I1
tp5417
a(I2
I1
I1
I1
tp5418
a(I11
I1
I1
I1
tp5419
a(I5
I0
I0
I0
tp5420
a(I6
I0
I0
I0
tp5421
a(I1
I0
I0
I0
tp5422
a(I-1
I0
I0
I0
tp5423
a(I0
I0
I0
I0
tp5424
a(I2
I0
I0
I0
tp5425
a(I11
I0
I0
I0
tp5426
a(I11
I0
I0
I0
tp5427
a(I27
I0
I0
I0
tp5428
a(I24
I0
I0
I0
tp5429
a(I1
I0
I0
I0
tp5430
a(I1
I0
I0
I0
tp5431
a(I12
I0
I0
I0
tp5432
a(I5
I0
I0
I0
tp5433
a(I2
I0
I0
I0
tp5434
a(I11
I0
I0
I0
tp5435
a(I11
I0
I0
I0
tp5436
a(I12
I0
I0
I0
tp5437
a(I0
I0
I0
I0
tp5438
a(I5
I0
I0
I0
tp5439
a(I1
I0
I0
I0
tp5440
a(I1
I0
I0
I0
tp5441
a(I12
I0
I0
I0
tp5442
a(I5
I0
I0
I0
tp5443
a(I2
I0
I0
I0
tp5444
a(I6
I0
I0
I0
tp5445
a(I11
I0
I0
I0
tp5446
a(I12
I0
I0
I0
tp5447
a(I-1
I0
I0
I0
tp5448
a(I5
I0
I0
I0
tp5449
a(I2
I0
I0
I0
tp5450
a(I11
I0
I0
I0
tp5451
a(I5
I0
I0
I0
tp5452
a(I11
I0
I0
I0
tp5453
a(I1
I0
I0
I0
tp5454
a(I-1
I0
I0
I0
tp5455
a(I2
I0
I0
I0
tp5456
a(I11
I0
I0
I0
tp5457
a(I11
I0
I0
I0
tp5458
a(I27
I0
I0
I0
tp5459
a(I6
I0
I0
I0
tp5460
a(I5
I0
I0
I0
tp5461
a(I2
I0
I0
I0
tp5462
a(I12
I0
I0
I0
tp5463
a(I5
I0
I0
I0
tp5464
a(I6
I0
I0
I0
tp5465
a(I11
I0
I0
I0
tp5466
a(I5
I0
I0
I0
tp5467
a(I6
I0
I0
I0
tp5468
a(I-1
I0
I0
I0
tp5469
a(I0
I0
I0
I0
tp5470
a(I19
I0
I0
I0
tp5471
a(I2
I1
I1
I1
tp5472
a(I11
I0
I0
I0
tp5473
a(I11
I0
I0
I0
tp5474
a(I27
I0
I0
I0
tp5475
a(I19
I0
I0
I0
tp5476
a(I5
I0
I0
I1
tp5477
a(I2
I1
I1
I1
tp5478
a(I12
I0
I0
I0
tp5479
a(I28
I0
I0
I0
tp5480
a(I11
I0
I0
I0
tp5481
a(I27
I0
I0
I0
tp5482
a(I28
I0
I0
I0
tp5483
a(I-1
I0
I0
I0
tp5484
a(I2
I0
I0
I0
tp5485
a(I11
I0
I0
I0
tp5486
a(I27
I0
I0
I0
tp5487
a(I2
I0
I0
I0
tp5488
a(I6
I0
I0
I0
tp5489
a(I11
I0
I0
I0
tp5490
a(I5
I0
I0
I0
tp5491
a(I2
I1
I1
I1
tp5492
a(I11
I0
I0
I0
tp5493
a(I5
I0
I0
I0
tp5494
a(I12
I0
I0
I0
tp5495
a(I-1
I0
I0
I0
tp5496
a(I19
I0
I0
I0
tp5497
a(I27
I0
I0
I0
tp5498
a(I11
I0
I0
I0
tp5499
a(I24
I0
I0
I0
tp5500
a(I26
I0
I0
I0
tp5501
a(I2
I0
I0
I0
tp5502
a(I11
I0
I0
I0
tp5503
a(I11
I0
I0
I0
tp5504
a(I12
I0
I0
I0
tp5505
a(I-1
I0
I0
I0
tp5506
a(I33
I0
I0
I0
tp5507
a(I10
I0
I0
I0
tp5508
a(I26
I0
I0
I0
tp5509
a(I5
I0
I0
I0
tp5510
a(I6
I0
I0
I0
tp5511
a(I11
I0
I0
I0
tp5512
a(I-1
I0
I0
I0
tp5513
a(I-1
I0
I0
I0
tp5514
a(I5
I0
I0
I0
tp5515
a(I28
I0
I0
I0
tp5516
a(I2
I0
I0
I0
tp5517
a(I6
I0
I0
I0
tp5518
a(I1
I0
I0
I0
tp5519
a(I12
I0
I0
I0
tp5520
a(I5
I0
I0
I0
tp5521
a(I12
I0
I0
I0
tp5522
a(I5
I0
I0
I0
tp5523
a(I1
I0
I0
I0
tp5524
a(I0
I0
I0
I0
tp5525
a(I1
I0
I0
I0
tp5526
a(I-1
I0
I0
I0
tp5527
a(I2
I0
I0
I0
tp5528
a(I11
I0
I0
I0
tp5529
a(I27
I0
I0
I0
tp5530
a(I28
I0
I0
I0
tp5531
a(I5
I0
I0
I0
tp5532
a(I2
I0
I0
I0
tp5533
a(I6
I0
I0
I0
tp5534
a(I11
I0
I0
I0
tp5535
a(I-1
I0
I0
I0
tp5536
a(I2
I1
I1
I1
tp5537
a(I11
I0
I0
I0
tp5538
a(I10
I0
I0
I0
tp5539
a(I26
I0
I0
I0
tp5540
a(I2
I1
I1
I1
tp5541
a(I6
I0
I0
I0
tp5542
a(I11
I0
I0
I0
tp5543
a(I5
I0
I0
I0
tp5544
a(I2
I0
I0
I0
tp5545
a(I12
I0
I0
I0
tp5546
a(I27
I0
I0
I0
tp5547
a(I24
I0
I0
I0
tp5548
a(I26
I0
I0
I0
tp5549
a(I2
I1
I1
I1
tp5550
a(I6
I0
I0
I0
tp5551
a(I11
I0
I0
I0
tp5552
a(I5
I0
I0
I0
tp5553
a(I2
I0
I0
I0
tp5554
a(I12
I0
I0
I0
tp5555
a(I2
I0
I0
I0
tp5556
a(I19
I0
I0
I0
tp5557
a(I6
I0
I0
I0
tp5558
a(I11
I0
I0
I0
tp5559
a(I-1
I0
I0
I0
tp5560
a(I0
I0
I0
I0
tp5561
a(I30
I0
I0
I0
tp5562
a(I19
I0
I0
I0
tp5563
a(I29
I0
I0
I0
tp5564
a(I2
I1
I1
I1
tp5565
a(I6
I0
I0
I0
tp5566
a(I-1
I0
I0
I0
tp5567
a(I6
I0
I0
I0
tp5568
a(I11
I1
I1
I1
tp5569
a(I5
I0
I0
I0
tp5570
a(I2
I0
I0
I0
tp5571
a(I11
I0
I0
I0
tp5572
a(I16
I0
I0
I0
tp5573
a(I11
I0
I0
I0
tp5574
a(I11
I0
I0
I0
tp5575
a(I-1
I0
I0
I0
tp5576
a(I11
I0
I0
I0
tp5577
a(I11
I0
I0
I0
tp5578
a(I-1
I0
I0
I0
tp5579
a(I5
I0
I0
I0
tp5580
a(I29
I0
I0
I0
tp5581
a(I11
I0
I0
I0
tp5582
a(I24
I0
I0
I0
tp5583
a(I26
I0
I0
I0
tp5584
a(I2
I0
I0
I0
tp5585
a(I11
I0
I0
I0
tp5586
a(I5
I0
I0
I0
tp5587
a(I2
I0
I0
I0
tp5588
a(I11
I0
I0
I0
tp5589
a(I5
I0
I0
I0
tp5590
a(I2
I0
I0
I0
tp5591
a(I6
I0
I0
I0
tp5592
a(I-1
I0
I0
I0
tp5593
a(I2
I0
I0
I0
tp5594
a(I11
I0
I0
I0
tp5595
a(I10
I0
I0
I0
tp5596
a(I26
I0
I0
I0
tp5597
a(I6
I0
I0
I0
tp5598
a(I5
I0
I0
I0
tp5599
a(I6
I0
I0
I0
tp5600
a(I12
I0
I0
I0
tp5601
a(I-1
I0
I0
I0
tp5602
a(I29
I0
I0
I0
tp5603
a(I5
I0
I0
I0
tp5604
a(I2
I1
I1
I1
tp5605
a(I6
I0
I0
I0
tp5606
a(I11
I0
I0
I0
tp5607
a(I11
I0
I0
I0
tp5608
a(I-1
I0
I0
I0
tp5609
a(I2
I0
I0
I0
tp5610
a(I11
I0
I0
I0
tp5611
a(I27
I0
I0
I0
tp5612
a(I24
I0
I0
I0
tp5613
a(I26
I0
I0
I0
tp5614
a(I11
I0
I0
I0
tp5615
a(I5
I0
I0
I0
tp5616
a(I2
I1
I1
I1
tp5617
a(I6
I0
I0
I0
tp5618
a(I11
I0
I0
I0
tp5619
a(I11
I0
I0
I0
tp5620
a(I-1
I0
I0
I0
tp5621
a(I2
I0
I0
I0
tp5622
a(I12
I0
I0
I0
tp5623
a(I27
I0
I0
I0
tp5624
a(I2
I0
I0
I0
tp5625
a(I12
I0
I0
I0
tp5626
a(I-1
I0
I0
I0
tp5627
a(I0
I0
I0
I0
tp5628
a(I2
I0
I0
I0
tp5629
a(I11
I0
I0
I0
tp5630
a(I27
I0
I0
I0
tp5631
a(I6
I0
I0
I0
tp5632
a(I11
I0
I0
I0
tp5633
a(I5
I0
I0
I0
tp5634
a(I2
I1
I1
I1
tp5635
a(I11
I0
I0
I0
tp5636
a(I5
I0
I0
I0
tp5637
a(I6
I0
I0
I0
tp5638
a(I19
I0
I0
I0
tp5639
a(I1
I0
I0
I0
tp5640
a(I11
I0
I0
I0
tp5641
a(I5
I0
I0
I0
tp5642
a(I11
I0
I0
I0
tp5643
a(I-1
I0
I0
I0
tp5644
a(I11
I0
I0
I0
tp5645
a(I27
I0
I0
I0
tp5646
a(I5
I0
I0
I0
tp5647
a(I11
I0
I0
I0
tp5648
a(I-1
I0
I0
I0
tp5649
a(I5
I0
I0
I1
tp5650
a(I2
I1
I1
I1
tp5651
a(I1
I0
I0
I0
tp5652
a(I11
I0
I0
I0
tp5653
a(I12
I0
I0
I0
tp5654
a(I30
I0
I0
I0
tp5655
a(I19
I0
I0
I0
tp5656
a(I29
I0
I0
I0
tp5657
a(I2
I0
I0
I0
tp5658
a(I11
I0
I0
I0
tp5659
a(I19
I0
I0
I0
tp5660
a(I-1
I0
I0
I0
tp5661
a(I24
I0
I0
I0
tp5662
a(I26
I0
I0
I0
tp5663
a(I11
I0
I0
I0
tp5664
a(I16
I0
I0
I0
tp5665
a(I11
I0
I0
I0
tp5666
a(I11
I0
I0
I0
tp5667
a(I24
I0
I0
I0
tp5668
a(I1
I0
I0
I0
tp5669
a(I12
I0
I0
I0
tp5670
a(I-1
I0
I0
I0
tp5671
a(I5
I0
I0
I0
tp5672
a(I2
I1
I1
I1
tp5673
a(I6
I0
I0
I0
tp5674
a(I11
I0
I0
I0
tp5675
a(I5
I0
I0
I0
tp5676
a(I2
I0
I0
I0
tp5677
a(I6
I0
I0
I0
tp5678
a(I11
I0
I0
I0
tp5679
a(I-1
I0
I0
I0
tp5680
a(I5
I0
I0
I0
tp5681
a(I11
I0
I0
I0
tp5682
a(I1
I0
I0
I0
tp5683
a(I-1
I0
I0
I0
tp5684
a(I12
I0
I0
I0
tp5685
a(I30
I0
I0
I0
tp5686
a(I6
I0
I0
I0
tp5687
a(I11
I0
I0
I0
tp5688
a(I27
I0
I0
I0
tp5689
a(I2
I1
I1
I1
tp5690
a(I11
I0
I0
I0
tp5691
a(I11
I0
I0
I0
tp5692
a(I11
I0
I0
I0
tp5693
a(I24
I0
I0
I0
tp5694
a(I6
I0
I0
I0
tp5695
a(I11
I0
I0
I0
tp5696
a(I11
I0
I0
I0
tp5697
a(I11
I0
I0
I0
tp5698
a(I-1
I0
I0
I0
tp5699
a(I33
I0
I0
I0
tp5700
a(I27
I0
I0
I0
tp5701
a(I19
I0
I0
I0
tp5702
a(I5
I0
I0
I0
tp5703
a(I2
I0
I0
I0
tp5704
a(I11
I0
I0
I0
tp5705
a(I0
I0
I0
I0
tp5706
a(I2
I0
I0
I0
tp5707
a(I11
I0
I0
I0
tp5708
a(I-1
I0
I0
I0
tp5709
a(I11
I0
I0
I0
tp5710
a(I16
I0
I0
I0
tp5711
a(I28
I0
I0
I0
tp5712
a(I11
I0
I0
I0
tp5713
a(I27
I0
I0
I0
tp5714
a(I2
I0
I0
I0
tp5715
a(I12
I0
I0
I0
tp5716
a(I24
I0
I0
I0
tp5717
a(I2
I1
I1
I1
tp5718
a(I12
I0
I0
I0
tp5719
a(I11
I0
I0
I0
tp5720
a(I-1
I0
I0
I0
tp5721
a(I5
I0
I0
I0
tp5722
a(I2
I0
I0
I0
tp5723
a(I6
I0
I0
I0
tp5724
a(I19
I0
I0
I0
tp5725
a(I11
I0
I0
I0
tp5726
a(I-1
I0
I0
I0
tp5727
a(I2
I0
I0
I0
tp5728
a(I12
I0
I0
I0
tp5729
a(I27
I0
I0
I0
tp5730
a(I6
I0
I0
I0
tp5731
a(I0
I0
I0
I0
tp5732
a(I2
I0
I0
I0
tp5733
a(I12
I0
I0
I0
tp5734
a(I27
I0
I0
I0
tp5735
a(I29
I0
I0
I0
tp5736
a(I19
I0
I0
I0
tp5737
a(I5
I0
I0
I0
tp5738
a(I6
I0
I0
I0
tp5739
a(I-1
I0
I0
I0
tp5740
a(I2
I0
I0
I0
tp5741
a(I12
I0
I0
I0
tp5742
a(I10
I0
I0
I0
tp5743
a(I19
I0
I0
I0
tp5744
a(I26
I0
I0
I0
tp5745
a(I19
I0
I0
I0
tp5746
a(I-1
I0
I0
I0
tp5747
a(I2
I0
I0
I0
tp5748
a(I11
I0
I0
I0
tp5749
a(I16
I0
I0
I0
tp5750
a(I11
I0
I0
I0
tp5751
a(I11
I0
I0
I0
tp5752
a(I11
I0
I0
I0
tp5753
a(I19
I0
I0
I0
tp5754
a(I27
I0
I0
I0
tp5755
a(I2
I0
I0
I0
tp5756
a(I6
I0
I0
I0
tp5757
a(I11
I0
I0
I0
tp5758
a(I5
I0
I0
I0
tp5759
a(I11
I0
I0
I0
tp5760
a(I11
I0
I0
I0
tp5761
a(I-1
I0
I0
I0
tp5762
a(I0
I0
I0
I0
tp5763
a(I2
I0
I0
I0
tp5764
a(I12
I0
I0
I0
tp5765
a(I27
I0
I0
I0
tp5766
a(I5
I0
I0
I0
tp5767
a(I2
I0
I0
I0
tp5768
a(I11
I0
I0
I0
tp5769
a(I5
I0
I0
I0
tp5770
a(I2
I1
I1
I1
tp5771
a(I6
I0
I0
I0
tp5772
a(I11
I0
I0
I0
tp5773
a(I11
I0
I0
I0
tp5774
a(I-1
I0
I0
I0
tp5775
a(I0
I0
I0
I0
tp5776
a(I2
I0
I0
I0
tp5777
a(I11
I0
I0
I0
tp5778
a(I-1
I0
I0
I0
tp5779
a(I28
I0
I0
I0
tp5780
a(I5
I0
I0
I0
tp5781
a(I11
I0
I0
I0
tp5782
a(I11
I0
I0
I0
tp5783
a(I-1
I0
I0
I0
tp5784
a(I19
I0
I0
I0
tp5785
a(I29
I0
I0
I0
tp5786
a(I5
I0
I0
I0
tp5787
a(I2
I0
I0
I0
tp5788
a(I12
I0
I0
I0
tp5789
a(I5
I0
I0
I0
tp5790
a(I2
I0
I0
I0
tp5791
a(I11
I0
I0
I0
tp5792
a(I-1
I0
I0
I0
tp5793
a(I2
I0
I0
I0
tp5794
a(I12
I0
I0
I0
tp5795
a(I-1
I0
I0
I0
tp5796
a(I33
I0
I0
I0
tp5797
a(I27
I0
I0
I0
tp5798
a(I29
I0
I0
I0
tp5799
a(I2
I1
I1
I1
tp5800
a(I11
I0
I0
I0
tp5801
a(I1
I0
I0
I0
tp5802
a(I12
I0
I0
I0
tp5803
a(I1
I0
I0
I0
tp5804
a(I12
I0
I0
I0
tp5805
a(I20
I0
I0
I0
tp5806
a(I-1
I0
I0
I0
tp5807
a(I-1
I0
I0
I0
tp5808
a(I10
I0
I0
I0
tp5809
a(I26
I0
I0
I0
tp5810
a(I5
I0
I0
I0
tp5811
a(I24
I0
I0
I0
tp5812
a(I26
I0
I0
I0
tp5813
a(I2
I0
I0
I0
tp5814
a(I11
I0
I0
I0
tp5815
a(I11
I0
I0
I0
tp5816
a(I-1
I0
I0
I0
tp5817
a(I2
I0
I0
I0
tp5818
a(I11
I0
I0
I0
tp5819
a(I-1
I0
I0
I0
tp5820
a(I5
I0
I0
I0
tp5821
a(I2
I1
I1
I1
tp5822
a(I6
I0
I0
I0
tp5823
a(I6
I0
I0
I0
tp5824
a(I11
I0
I0
I0
tp5825
a(I-1
I0
I0
I0
tp5826
a(I10
I0
I0
I0
tp5827
a(I26
I0
I0
I0
tp5828
a(I29
I0
I0
I0
tp5829
a(I5
I0
I0
I0
tp5830
a(I28
I0
I0
I0
tp5831
a(I29
I0
I0
I0
tp5832
a(I2
I1
I1
I1
tp5833
a(I6
I0
I0
I0
tp5834
a(I1
I0
I0
I0
tp5835
a(I12
I0
I0
I0
tp5836
a(I5
I0
I0
I0
tp5837
a(I2
I0
I0
I0
tp5838
a(I12
I0
I0
I0
tp5839
a(I24
I0
I0
I0
tp5840
a(I2
I0
I0
I0
tp5841
a(I12
I0
I0
I0
tp5842
a(I5
I0
I0
I0
tp5843
a(I2
I0
I0
I0
tp5844
a(I6
I0
I0
I0
tp5845
a(I11
I0
I0
I0
tp5846
a(I5
I0
I0
I0
tp5847
a(I2
I0
I0
I0
tp5848
a(I11
I0
I0
I0
tp5849
a(I-1
I0
I0
I0
tp5850
a(lp5851
(I11
I1
I1
I1
tp5852
a(I-1
I0
I0
I0
tp5853
a(I6
I0
I0
I0
tp5854
a(I11
I0
I0
I0
tp5855
a(I-1
I0
I0
I0
tp5856
a(I31
I1
I1
I0
tp5857
a(I2
I0
I0
I0
tp5858
a(I21
I0
I0
I0
tp5859
a(I6
I0
I0
I0
tp5860
a(I11
I0
I0
I0
tp5861
a(I5
I1
I1
I1
tp5862
a(I11
I1
I1
I1
tp5863
a(I0
I0
I0
I0
tp5864
a(I2
I0
I0
I0
tp5865
a(I6
I0
I0
I0
tp5866
a(I21
I0
I0
I0
tp5867
a(I6
I0
I0
I0
tp5868
a(I11
I0
I0
I0
tp5869
a(I5
I1
I1
I1
tp5870
a(I2
I0
I0
I0
tp5871
a(I6
I0
I0
I0
tp5872
a(I12
I0
I0
I0
tp5873
a(I-1
I0
I0
I0
tp5874
a(I29
I1
I1
I0
tp5875
a(I5
I1
I1
I1
tp5876
a(I11
I0
I0
I0
tp5877
a(I11
I1
I1
I1
tp5878
a(I5
I0
I0
I0
tp5879
a(I2
I0
I0
I0
tp5880
a(I11
I0
I0
I0
tp5881
a(I5
I0
I0
I0
tp5882
a(I11
I0
I0
I0
tp5883
a(I-1
I0
I0
I0
tp5884
a(I5
I0
I0
I0
tp5885
a(I2
I0
I0
I0
tp5886
a(I6
I0
I0
I0
tp5887
a(I1
I0
I0
I0
tp5888
a(I11
I0
I0
I0
tp5889
a(I5
I0
I0
I0
tp5890
a(I1
I0
I0
I0
tp5891
a(I1
I0
I0
I0
tp5892
a(I12
I0
I0
I0
tp5893
a(I-1
I0
I0
I0
tp5894
a(I5
I0
I0
I0
tp5895
a(I2
I0
I0
I0
tp5896
a(I11
I0
I0
I0
tp5897
a(I11
I0
I0
I0
tp5898
a(I5
I0
I0
I0
tp5899
a(I1
I0
I0
I0
tp5900
a(I6
I0
I0
I0
tp5901
a(I12
I0
I0
I0
tp5902
a(I-1
I0
I0
I0
tp5903
a(I1
I0
I0
I0
tp5904
a(I11
I0
I0
I0
tp5905
a(I-1
I0
I0
I0
tp5906
a(I-1
I0
I0
I0
tp5907
a(I17
I0
I0
I0
tp5908
a(I19
I0
I0
I0
tp5909
a(I31
I1
I1
I0
tp5910
a(I2
I0
I0
I0
tp5911
a(I8
I0
I0
I0
tp5912
a(I11
I0
I0
I0
tp5913
a(I5
I1
I1
I1
tp5914
a(I2
I0
I0
I0
tp5915
a(I6
I0
I0
I0
tp5916
a(I6
I0
I0
I0
tp5917
a(I12
I0
I0
I0
tp5918
a(I-1
I0
I0
I0
tp5919
a(I19
I0
I0
I0
tp5920
a(I19
I0
I0
I0
tp5921
a(I5
I0
I0
I0
tp5922
a(I2
I0
I0
I0
tp5923
a(I11
I0
I0
I0
tp5924
a(I5
I0
I0
I0
tp5925
a(I6
I0
I0
I0
tp5926
a(I11
I1
I1
I1
tp5927
a(I-1
I0
I0
I0
tp5928
a(I17
I0
I0
I0
tp5929
a(I31
I1
I1
I0
tp5930
a(I2
I0
I0
I0
tp5931
a(I6
I0
I0
I0
tp5932
a(I11
I0
I0
I0
tp5933
a(I5
I0
I0
I0
tp5934
a(I11
I0
I0
I0
tp5935
a(I11
I0
I0
I0
tp5936
a(I11
I0
I0
I0
tp5937
a(I-1
I0
I0
I0
tp5938
a(I32
I1
I1
I1
tp5939
a(I31
I1
I1
I0
tp5940
a(I2
I0
I0
I0
tp5941
a(I6
I0
I0
I0
tp5942
a(I21
I0
I0
I0
tp5943
a(I6
I0
I0
I0
tp5944
a(I6
I0
I0
I0
tp5945
a(I11
I0
I0
I0
tp5946
a(I5
I1
I1
I1
tp5947
a(I2
I0
I0
I0
tp5948
a(I6
I0
I0
I0
tp5949
a(I12
I0
I0
I0
tp5950
a(I-1
I0
I0
I0
tp5951
a(lp5952
(I28
I0
I0
I0
tp5953
a(I24
I0
I0
I0
tp5954
a(I2
I1
I1
I1
tp5955
a(I6
I0
I0
I0
tp5956
a(I12
I0
I0
I0
tp5957
a(I-1
I0
I0
I0
tp5958
a(I11
I1
I1
I1
tp5959
a(I-1
I0
I0
I0
tp5960
a(I33
I0
I0
I0
tp5961
a(I12
I0
I0
I0
tp5962
a(I30
I0
I0
I0
tp5963
a(I24
I0
I0
I0
tp5964
a(I26
I0
I0
I0
tp5965
a(I2
I1
I1
I1
tp5966
a(I11
I0
I0
I0
tp5967
a(I5
I0
I0
I0
tp5968
a(I11
I0
I0
I0
tp5969
a(I19
I0
I0
I0
tp5970
a(I19
I0
I0
I0
tp5971
a(I5
I0
I0
I0
tp5972
a(I2
I1
I1
I1
tp5973
a(I11
I0
I0
I0
tp5974
a(I-1
I0
I0
I0
tp5975
a(I11
I0
I0
I0
tp5976
a(I-1
I0
I0
I0
tp5977
a(I-1
I0
I0
I0
tp5978
a(I27
I1
I1
I0
tp5979
a(I29
I0
I0
I0
tp5980
a(I-1
I0
I0
I0
tp5981
a(I29
I1
I1
I0
tp5982
a(I-1
I0
I0
I0
tp5983
a(I0
I0
I0
I0
tp5984
a(I29
I0
I0
I0
tp5985
a(I5
I0
I0
I0
tp5986
a(I11
I0
I0
I0
tp5987
a(I11
I0
I0
I0
tp5988
a(I24
I0
I0
I0
tp5989
a(I26
I0
I0
I0
tp5990
a(I29
I0
I0
I0
tp5991
a(I-1
I0
I0
I0
tp5992
a(I0
I0
I0
I0
tp5993
a(I19
I0
I0
I0
tp5994
a(I29
I0
I0
I0
tp5995
a(I5
I0
I0
I0
tp5996
a(I2
I1
I1
I1
tp5997
a(I12
I0
I0
I0
tp5998
a(I-1
I0
I0
I0
tp5999
a(I11
I1
I1
I1
tp6000
a(I27
I1
I1
I0
tp6001
a(I29
I0
I0
I0
tp6002
a(I5
I0
I0
I0
tp6003
a(I18
I0
I0
I0
tp6004
a(I11
I0
I0
I0
tp6005
a(I0
I0
I0
I0
tp6006
a(I29
I0
I0
I0
tp6007
a(I11
I0
I0
I0
tp6008
a(I6
I0
I0
I0
tp6009
a(I5
I0
I0
I0
tp6010
a(I11
I0
I0
I0
tp6011
a(I24
I0
I0
I0
tp6012
a(I26
I0
I0
I0
tp6013
a(I-1
I0
I0
I0
tp6014
a(I5
I0
I0
I0
tp6015
a(I28
I0
I0
I0
tp6016
a(I29
I0
I0
I0
tp6017
a(I-1
I0
I0
I0
tp6018
a(I17
I0
I0
I0
tp6019
a(I27
I1
I1
I0
tp6020
a(I19
I0
I0
I0
tp6021
a(I11
I0
I0
I0
tp6022
a(I5
I0
I0
I0
tp6023
a(I1
I0
I0
I0
tp6024
a(I12
I0
I0
I0
tp6025
a(I-1
I0
I0
I0
tp6026
a(I28
I0
I0
I0
tp6027
a(I24
I0
I0
I0
tp6028
a(I11
I0
I0
I0
tp6029
a(I16
I0
I0
I0
tp6030
a(I11
I0
I0
I0
tp6031
a(I-1
I0
I0
I0
tp6032
a(I5
I0
I0
I0
tp6033
a(I1
I0
I0
I0
tp6034
a(I27
I0
I0
I0
tp6035
a(I12
I0
I0
I0
tp6036
a(I-1
I0
I0
I0
tp6037
a(I5
I0
I0
I0
tp6038
a(I2
I0
I0
I0
tp6039
a(I11
I0
I0
I0
tp6040
a(I-1
I0
I0
I0
tp6041
a(I2
I1
I1
I1
tp6042
a(I12
I0
I0
I0
tp6043
a(I27
I0
I0
I0
tp6044
a(I2
I0
I0
I0
tp6045
a(I11
I0
I0
I0
tp6046
a(I24
I0
I0
I0
tp6047
a(I2
I1
I1
I1
tp6048
a(I11
I0
I0
I0
tp6049
a(I5
I0
I0
I0
tp6050
a(I2
I1
I1
I1
tp6051
a(I11
I0
I0
I0
tp6052
a(I28
I0
I0
I0
tp6053
a(I13
I0
I0
I0
tp6054
a(I11
I1
I1
I1
tp6055
a(I5
I0
I0
I0
tp6056
a(I12
I0
I0
I0
tp6057
a(I-1
I0
I0
I0
tp6058
a(I11
I0
I0
I0
tp6059
a(I5
I0
I0
I0
tp6060
a(I2
I1
I1
I1
tp6061
a(I12
I0
I0
I0
tp6062
a(I11
I0
I0
I0
tp6063
a(I5
I0
I0
I0
tp6064
a(I1
I0
I0
I0
tp6065
a(I12
I0
I0
I0
tp6066
a(I-1
I0
I0
I0
tp6067
a(I17
I0
I0
I0
tp6068
a(I19
I0
I0
I0
tp6069
a(I27
I0
I0
I0
tp6070
a(I18
I0
I0
I0
tp6071
a(I12
I0
I0
I0
tp6072
a(I5
I0
I0
I0
tp6073
a(I17
I0
I0
I0
tp6074
a(I-1
I0
I0
I0
tp6075
a(I0
I0
I0
I0
tp6076
a(I27
I0
I0
I0
tp6077
a(I12
I0
I0
I0
tp6078
a(I5
I0
I0
I0
tp6079
a(I18
I0
I0
I0
tp6080
a(I11
I0
I0
I0
tp6081
a(I11
I0
I0
I0
tp6082
a(I-1
I0
I0
I0
tp6083
a(I5
I0
I0
I0
tp6084
a(I11
I1
I1
I1
tp6085
a(I-1
I0
I0
I0
tp6086
a(I11
I0
I0
I0
tp6087
a(I17
I0
I0
I0
tp6088
a(I27
I0
I0
I0
tp6089
a(I18
I0
I0
I0
tp6090
a(I11
I0
I0
I0
tp6091
a(I5
I0
I0
I0
tp6092
a(I2
I0
I0
I0
tp6093
a(I11
I0
I0
I0
tp6094
a(I24
I0
I0
I0
tp6095
a(I26
I0
I0
I0
tp6096
a(I6
I0
I0
I0
tp6097
a(I5
I1
I1
I1
tp6098
a(I17
I0
I0
I0
tp6099
a(I27
I0
I0
I0
tp6100
a(I29
I0
I0
I0
tp6101
a(I-1
I0
I0
I0
tp6102
a(I2
I1
I1
I1
tp6103
a(I6
I0
I0
I0
tp6104
a(I12
I0
I0
I0
tp6105
a(I1
I0
I0
I0
tp6106
a(I12
I0
I0
I0
tp6107
a(I32
I1
I1
I1
tp6108
a(I30
I1
I1
I1
tp6109
a(I29
I0
I0
I0
tp6110
a(I5
I0
I0
I0
tp6111
a(I17
I0
I0
I0
tp6112
a(I27
I1
I1
I0
tp6113
a(I5
I0
I0
I0
tp6114
a(I2
I1
I1
I1
tp6115
a(I11
I0
I0
I0
tp6116
a(I-1
I0
I0
I0
tp6117
a(I19
I0
I0
I0
tp6118
a(I19
I0
I0
I0
tp6119
a(I5
I0
I0
I0
tp6120
a(I6
I0
I0
I0
tp6121
a(I6
I0
I0
I0
tp6122
a(I12
I0
I0
I0
tp6123
a(I32
I1
I1
I1
tp6124
a(I27
I0
I0
I0
tp6125
a(I-1
I0
I0
I0
tp6126
a(lp6127
(I5
I0
I0
I0
tp6128
a(I2
I0
I0
I0
tp6129
a(I1
I0
I0
I0
tp6130
a(I11
I0
I0
I0
tp6131
a(I5
I0
I0
I0
tp6132
a(I2
I0
I0
I0
tp6133
a(I6
I0
I0
I0
tp6134
a(I1
I0
I0
I0
tp6135
a(I-1
I0
I0
I0
tp6136
a(I2
I0
I0
I0
tp6137
a(I21
I0
I0
I0
tp6138
a(I30
I0
I0
I0
tp6139
a(I2
I0
I0
I0
tp6140
a(I11
I0
I0
I0
tp6141
a(I10
I0
I0
I0
tp6142
a(I26
I0
I0
I0
tp6143
a(I27
I1
I1
I0
tp6144
a(I5
I1
I1
I1
tp6145
a(I11
I0
I0
I0
tp6146
a(I-1
I0
I0
I0
tp6147
a(I32
I0
I0
I0
tp6148
a(I27
I0
I0
I0
tp6149
a(I6
I0
I0
I0
tp6150
a(I12
I0
I0
I1
tp6151
a(I-1
I0
I0
I0
tp6152
a(I19
I0
I0
I0
tp6153
a(I19
I0
I0
I0
tp6154
a(I5
I0
I0
I0
tp6155
a(I11
I0
I0
I0
tp6156
a(I-1
I0
I0
I0
tp6157
a(I0
I0
I0
I0
tp6158
a(I19
I0
I0
I0
tp6159
a(I29
I0
I0
I0
tp6160
a(I24
I0
I0
I0
tp6161
a(I26
I0
I0
I0
tp6162
a(I2
I0
I0
I0
tp6163
a(I6
I0
I0
I0
tp6164
a(I11
I0
I0
I0
tp6165
a(I11
I0
I0
I0
tp6166
a(I-1
I0
I0
I0
tp6167
a(I2
I0
I0
I0
tp6168
a(I11
I0
I0
I0
tp6169
a(I27
I0
I0
I0
tp6170
a(I18
I0
I0
I0
tp6171
a(I6
I0
I0
I0
tp6172
a(I11
I0
I0
I0
tp6173
a(I5
I0
I0
I0
tp6174
a(I6
I0
I0
I0
tp6175
a(I11
I0
I0
I0
tp6176
a(I5
I0
I0
I0
tp6177
a(I1
I0
I0
I0
tp6178
a(I-1
I0
I0
I0
tp6179
a(I35
I0
I0
I0
tp6180
a(I11
I0
I0
I0
tp6181
a(I11
I0
I0
I0
tp6182
a(I13
I0
I0
I0
tp6183
a(I27
I1
I1
I0
tp6184
a(I29
I0
I0
I0
tp6185
a(I19
I0
I0
I0
tp6186
a(I5
I0
I0
I0
tp6187
a(I11
I0
I0
I0
tp6188
a(I5
I0
I0
I0
tp6189
a(I11
I1
I1
I1
tp6190
a(I16
I0
I0
I0
tp6191
a(I6
I0
I0
I0
tp6192
a(I6
I0
I0
I0
tp6193
a(I11
I0
I0
I0
tp6194
a(I5
I0
I0
I0
tp6195
a(I12
I0
I0
I0
tp6196
a(I-1
I0
I0
I0
tp6197
a(lp6198
(I2
I1
I1
I1
tp6199
a(I11
I1
I1
I1
tp6200
a(I5
I1
I1
I1
tp6201
a(I2
I1
I1
I1
tp6202
a(I11
I1
I1
I1
tp6203
a(I31
I1
I1
I0
tp6204
a(I2
I1
I1
I1
tp6205
a(I11
I0
I0
I0
tp6206
a(I17
I0
I0
I0
tp6207
a(I31
I0
I0
I0
tp6208
a(I5
I0
I0
I0
tp6209
a(I11
I0
I0
I0
tp6210
a(I11
I0
I0
I0
tp6211
a(I-1
I0
I0
I0
tp6212
a(I11
I0
I0
I0
tp6213
a(I-1
I0
I0
I0
tp6214
a(I0
I0
I0
I0
tp6215
a(I11
I0
I0
I0
tp6216
a(I11
I0
I0
I0
tp6217
a(I-1
I0
I0
I0
tp6218
a(I0
I0
I0
I0
tp6219
a(I19
I0
I0
I0
tp6220
a(I11
I0
I0
I0
tp6221
a(I-1
I0
I0
I0
tp6222
a(I-1
I0
I0
I0
tp6223
a(I19
I0
I0
I0
tp6224
a(I31
I0
I0
I0
tp6225
a(I11
I0
I0
I0
tp6226
a(I10
I0
I0
I0
tp6227
a(I19
I0
I0
I0
tp6228
a(I26
I0
I0
I0
tp6229
a(I28
I0
I0
I0
tp6230
a(I2
I0
I0
I0
tp6231
a(I11
I1
I1
I1
tp6232
a(I5
I0
I0
I0
tp6233
a(I18
I0
I0
I0
tp6234
a(I6
I0
I0
I0
tp6235
a(I29
I0
I0
I0
tp6236
a(I11
I0
I0
I0
tp6237
a(I31
I0
I0
I0
tp6238
a(I0
I0
I0
I0
tp6239
a(I2
I0
I0
I0
tp6240
a(I7
I0
I0
I0
tp6241
a(I11
I0
I0
I0
tp6242
a(I11
I0
I0
I0
tp6243
a(I5
I0
I0
I0
tp6244
a(I31
I1
I1
I0
tp6245
a(I6
I0
I0
I0
tp6246
a(I5
I0
I0
I0
tp6247
a(I2
I0
I0
I0
tp6248
a(I11
I0
I0
I0
tp6249
a(I11
I0
I0
I0
tp6250
a(I-1
I0
I0
I0
tp6251
a(I0
I0
I0
I0
tp6252
a(I11
I0
I0
I0
tp6253
a(I5
I0
I0
I0
tp6254
a(I2
I0
I0
I0
tp6255
a(I11
I0
I0
I0
tp6256
a(I0
I0
I0
I0
tp6257
a(I11
I0
I0
I0
tp6258
a(I11
I0
I0
I0
tp6259
a(I-1
I0
I0
I0
tp6260
a(I5
I0
I0
I0
tp6261
a(I11
I0
I0
I0
tp6262
a(I-1
I0
I0
I0
tp6263
a(I2
I1
I1
I1
tp6264
a(I6
I0
I0
I0
tp6265
a(I11
I0
I0
I0
tp6266
a(I31
I1
I1
I0
tp6267
a(I19
I0
I0
I0
tp6268
a(I6
I0
I0
I0
tp6269
a(I24
I0
I0
I0
tp6270
a(I26
I0
I0
I0
tp6271
a(I5
I0
I0
I0
tp6272
a(I2
I1
I1
I1
tp6273
a(I11
I0
I0
I0
tp6274
a(I6
I0
I0
I0
tp6275
a(I11
I0
I0
I0
tp6276
a(I5
I0
I0
I0
tp6277
a(I2
I0
I0
I0
tp6278
a(I6
I0
I0
I0
tp6279
a(I11
I0
I0
I0
tp6280
a(I0
I0
I0
I0
tp6281
a(I11
I0
I0
I0
tp6282
a(I11
I0
I0
I0
tp6283
a(I-1
I0
I0
I0
tp6284
a(I2
I0
I0
I0
tp6285
a(I11
I1
I1
I1
tp6286
a(I31
I1
I1
I0
tp6287
a(I5
I0
I0
I0
tp6288
a(I6
I0
I0
I0
tp6289
a(I11
I0
I0
I0
tp6290
a(I11
I0
I0
I0
tp6291
a(I12
I0
I0
I0
tp6292
a(I35
I0
I0
I0
tp6293
a(I12
I0
I0
I0
tp6294
a(I30
I0
I0
I0
tp6295
a(I19
I0
I0
I0
tp6296
a(I6
I0
I0
I0
tp6297
a(I6
I0
I0
I0
tp6298
a(I5
I0
I0
I0
tp6299
a(I2
I0
I0
I0
tp6300
a(I17
I0
I0
I0
tp6301
a(I28
I0
I0
I0
tp6302
a(I11
I0
I0
I0
tp6303
a(I11
I0
I0
I0
tp6304
a(I0
I0
I0
I0
tp6305
a(I11
I0
I0
I0
tp6306
a(I11
I0
I0
I0
tp6307
a(I30
I0
I0
I0
tp6308
a(I6
I0
I0
I0
tp6309
a(I11
I0
I0
I0
tp6310
a(I27
I0
I0
I0
tp6311
a(I2
I0
I0
I0
tp6312
a(I6
I0
I0
I0
tp6313
a(I11
I0
I0
I0
tp6314
a(I31
I1
I1
I0
tp6315
a(I19
I0
I0
I0
tp6316
a(I29
I0
I0
I0
tp6317
a(I5
I0
I0
I0
tp6318
a(I2
I0
I0
I0
tp6319
a(I10
I0
I0
I0
tp6320
a(I26
I0
I0
I0
tp6321
a(I1
I0
I0
I0
tp6322
a(I0
I0
I0
I0
tp6323
a(I7
I0
I0
I0
tp6324
a(I11
I0
I0
I0
tp6325
a(I28
I0
I0
I0
tp6326
a(I12
I0
I0
I0
tp6327
a(I-1
I0
I0
I0
tp6328
a(I2
I0
I0
I0
tp6329
a(I6
I0
I0
I0
tp6330
a(I11
I0
I0
I0
tp6331
a(I31
I0
I0
I0
tp6332
a(I2
I1
I1
I1
tp6333
a(I11
I0
I0
I0
tp6334
a(I5
I1
I1
I1
tp6335
a(I12
I0
I0
I0
tp6336
a(I0
I0
I0
I0
tp6337
a(I31
I1
I1
I0
tp6338
a(I19
I0
I0
I0
tp6339
a(I29
I0
I0
I0
tp6340
a(I5
I0
I0
I0
tp6341
a(I2
I1
I1
I1
tp6342
a(I7
I0
I0
I0
tp6343
a(I6
I0
I0
I0
tp6344
a(I11
I0
I0
I0
tp6345
a(I29
I0
I0
I0
tp6346
a(I5
I0
I0
I0
tp6347
a(I2
I0
I0
I0
tp6348
a(I6
I0
I0
I0
tp6349
a(I11
I0
I0
I0
tp6350
a(I11
I0
I0
I0
tp6351
a(I29
I0
I0
I0
tp6352
a(I24
I0
I0
I0
tp6353
a(I6
I0
I0
I0
tp6354
a(I6
I0
I0
I0
tp6355
a(I12
I0
I0
I0
tp6356
a(I-1
I0
I0
I0
tp6357
a(lp6358
(I11
I0
I0
I0
tp6359
a(I31
I1
I1
I0
tp6360
a(I2
I0
I0
I0
tp6361
a(I8
I1
I1
I0
tp6362
a(I11
I0
I0
I0
tp6363
a(I5
I1
I1
I1
tp6364
a(I2
I0
I0
I0
tp6365
a(I1
I0
I0
I0
tp6366
a(I6
I0
I0
I0
tp6367
a(I11
I0
I0
I0
tp6368
a(I12
I0
I0
I0
tp6369
a(I0
I0
I0
I0
tp6370
a(I12
I1
I1
I0
tp6371
a(I32
I0
I0
I0
tp6372
a(I30
I0
I0
I0
tp6373
a(I2
I0
I0
I0
tp6374
a(I11
I1
I1
I1
tp6375
a(I6
I0
I0
I0
tp6376
a(I11
I0
I0
I0
tp6377
a(I11
I0
I0
I0
tp6378
a(I-1
I0
I0
I0
tp6379
a(I17
I0
I0
I0
tp6380
a(I31
I0
I0
I0
tp6381
a(I6
I0
I0
I0
tp6382
a(I12
I0
I0
I0
tp6383
a(I5
I0
I0
I0
tp6384
a(I2
I0
I0
I0
tp6385
a(I6
I0
I0
I0
tp6386
a(I11
I0
I0
I0
tp6387
a(I32
I0
I0
I0
tp6388
a(I31
I1
I1
I0
tp6389
a(I19
I0
I0
I0
tp6390
a(I1
I0
I0
I0
tp6391
a(I12
I0
I0
I0
tp6392
a(I-1
I0
I0
I0
tp6393
a(I1
I0
I0
I0
tp6394
a(I12
I0
I0
I0
tp6395
a(I-1
I0
I0
I0
tp6396
a(I-1
I0
I0
I0
tp6397
a(I29
I0
I0
I0
tp6398
a(I-1
I0
I0
I0
tp6399
a(I5
I0
I0
I0
tp6400
a(I1
I0
I0
I0
tp6401
a(I12
I0
I0
I0
tp6402
a(I-1
I0
I0
I0
tp6403
a(I1
I0
I0
I0
tp6404
a(I12
I0
I0
I0
tp6405
a(I-1
I0
I0
I0
tp6406
a(I-1
I0
I0
I0
tp6407
a(I6
I0
I0
I0
tp6408
a(I-1
I0
I0
I0
tp6409
a(I-1
I0
I0
I0
tp6410
a(I27
I0
I0
I0
tp6411
a(I5
I0
I0
I0
tp6412
a(I1
I0
I0
I0
tp6413
a(I0
I0
I0
I0
tp6414
a(I1
I0
I0
I0
tp6415
a(I16
I1
I1
I1
tp6416
a(I-1
I0
I0
I0
tp6417
a(I5
I0
I0
I0
tp6418
a(I2
I0
I0
I0
tp6419
a(I12
I1
I1
I0
tp6420
a(I-1
I0
I0
I0
tp6421
a(I2
I0
I0
I0
tp6422
a(I6
I0
I0
I0
tp6423
a(I11
I0
I0
I0
tp6424
a(I11
I0
I0
I0
tp6425
a(I31
I0
I0
I0
tp6426
a(I2
I0
I0
I0
tp6427
a(I11
I0
I0
I0
tp6428
a(I5
I0
I0
I0
tp6429
a(I6
I0
I0
I0
tp6430
a(I6
I0
I0
I0
tp6431
a(I11
I0
I0
I0
tp6432
a(I12
I0
I0
I0
tp6433
a(I-1
I0
I0
I0
tp6434
a(I12
I0
I0
I0
tp6435
a(I27
I0
I0
I0
tp6436
a(I29
I0
I0
I0
tp6437
a(I22
I0
I0
I0
tp6438
a(I5
I0
I0
I0
tp6439
a(I10
I0
I0
I0
tp6440
a(I1
I0
I0
I0
tp6441
a(I5
I1
I1
I1
tp6442
a(I2
I0
I0
I0
tp6443
a(I11
I0
I0
I0
tp6444
a(I12
I0
I0
I0
tp6445
a(I5
I1
I1
I1
tp6446
a(I11
I0
I0
I0
tp6447
a(I-1
I0
I0
I0
tp6448
a(I11
I0
I0
I0
tp6449
a(I0
I0
I0
I0
tp6450
a(I11
I0
I0
I0
tp6451
a(I0
I0
I0
I0
tp6452
a(I2
I0
I0
I0
tp6453
a(I11
I0
I0
I0
tp6454
a(I5
I1
I1
I1
tp6455
a(I1
I0
I0
I0
tp6456
a(I6
I0
I0
I0
tp6457
a(I12
I0
I0
I0
tp6458
a(I27
I0
I0
I0
tp6459
a(I29
I0
I0
I0
tp6460
a(I5
I0
I0
I0
tp6461
a(I2
I0
I0
I0
tp6462
a(I11
I1
I1
I1
tp6463
a(I6
I0
I0
I0
tp6464
a(I11
I0
I0
I0
tp6465
a(I11
I0
I0
I0
tp6466
a(I-1
I0
I0
I0
tp6467
a(I2
I0
I0
I0
tp6468
a(I12
I0
I0
I0
tp6469
a(I27
I0
I0
I0
tp6470
a(I1
I0
I0
I0
tp6471
a(I12
I0
I0
I0
tp6472
a(I32
I0
I0
I0
tp6473
a(I27
I0
I0
I0
tp6474
a(I19
I0
I0
I0
tp6475
a(I19
I0
I0
I0
tp6476
a(I29
I0
I0
I0
tp6477
a(I29
I0
I0
I0
tp6478
a(I5
I0
I0
I0
tp6479
a(I11
I1
I1
I1
tp6480
a(I-1
I0
I0
I0
tp6481
a(I32
I1
I1
I1
tp6482
a(I31
I0
I0
I0
tp6483
a(I2
I0
I0
I0
tp6484
a(I6
I0
I0
I0
tp6485
a(I11
I0
I0
I0
tp6486
a(I5
I1
I1
I1
tp6487
a(I6
I0
I0
I0
tp6488
a(I12
I0
I0
I0
tp6489
a(I24
I0
I0
I0
tp6490
a(I1
I0
I0
I0
tp6491
a(I-1
I0
I0
I0
tp6492
a(lp6493
(I11
I0
I0
I0
tp6494
a(I1
I0
I0
I0
tp6495
a(I27
I0
I0
I0
tp6496
a(I5
I0
I0
I0
tp6497
a(I6
I0
I0
I0
tp6498
a(I1
I0
I0
I0
tp6499
a(I-1
I0
I0
I0
tp6500
a(I1
I0
I0
I0
tp6501
a(I-1
I0
I0
I0
tp6502
a(I5
I0
I0
I0
tp6503
a(I6
I0
I0
I0
tp6504
a(I1
I0
I0
I0
tp6505
a(I-1
I0
I0
I0
tp6506
a(I17
I0
I0
I0
tp6507
a(I27
I1
I1
I0
tp6508
a(I29
I0
I0
I0
tp6509
a(I5
I0
I0
I0
tp6510
a(I1
I0
I0
I0
tp6511
a(I7
I0
I0
I0
tp6512
a(I11
I0
I0
I0
tp6513
a(I10
I0
I0
I0
tp6514
a(I26
I0
I0
I0
tp6515
a(I2
I1
I1
I1
tp6516
a(I6
I0
I0
I0
tp6517
a(I1
I0
I0
I0
tp6518
a(I28
I0
I0
I0
tp6519
a(I17
I0
I0
I0
tp6520
a(I2
I1
I1
I1
tp6521
a(I6
I0
I0
I0
tp6522
a(I1
I0
I0
I0
tp6523
a(I-1
I0
I0
I0
tp6524
a(I0
I0
I0
I0
tp6525
a(I2
I0
I0
I0
tp6526
a(I27
I1
I1
I0
tp6527
a(I6
I0
I0
I0
tp6528
a(I12
I1
I1
I1
tp6529
a(I-1
I0
I0
I0
tp6530
a(I19
I0
I0
I0
tp6531
a(I-1
I0
I0
I0
tp6532
a(I5
I0
I0
I0
tp6533
a(I11
I0
I0
I0
tp6534
a(I1
I0
I0
I0
tp6535
a(I-1
I0
I0
I0
tp6536
a(I12
I1
I1
I1
tp6537
a(I27
I1
I1
I0
tp6538
a(I29
I0
I0
I0
tp6539
a(I5
I0
I0
I0
tp6540
a(I1
I0
I0
I0
tp6541
a(I11
I0
I0
I0
tp6542
a(I5
I0
I0
I0
tp6543
a(I28
I0
I0
I0
tp6544
a(I12
I0
I0
I0
tp6545
a(I0
I0
I0
I0
tp6546
a(I6
I0
I0
I0
tp6547
a(I12
I0
I0
I0
tp6548
a(I-1
I0
I0
I0
tp6549
a(I12
I1
I1
I1
tp6550
a(I27
I0
I0
I0
tp6551
a(I2
I1
I1
I1
tp6552
a(I11
I0
I0
I0
tp6553
a(I5
I0
I0
I0
tp6554
a(I17
I0
I0
I0
tp6555
a(I27
I0
I0
I0
tp6556
a(I18
I0
I0
I0
tp6557
a(I12
I0
I0
I0
tp6558
a(I-1
I0
I0
I0
tp6559
a(lp6560
(I6
I0
I0
I0
tp6561
a(I11
I0
I0
I0
tp6562
a(I27
I0
I0
I0
tp6563
a(I2
I0
I0
I0
tp6564
a(I11
I0
I0
I0
tp6565
a(I5
I0
I0
I0
tp6566
a(I2
I0
I0
I0
tp6567
a(I6
I0
I0
I0
tp6568
a(I12
I0
I0
I0
tp6569
a(I5
I0
I0
I0
tp6570
a(I12
I0
I0
I0
tp6571
a(I0
I0
I0
I0
tp6572
a(I11
I0
I0
I0
tp6573
a(I11
I0
I0
I0
tp6574
a(I5
I0
I0
I0
tp6575
a(I11
I0
I0
I0
tp6576
a(I-1
I0
I0
I0
tp6577
a(I19
I0
I0
I0
tp6578
a(I18
I0
I0
I0
tp6579
a(I11
I0
I0
I0
tp6580
a(I5
I0
I0
I0
tp6581
a(I2
I0
I0
I0
tp6582
a(I6
I0
I0
I0
tp6583
a(I11
I0
I0
I0
tp6584
a(I-1
I0
I0
I0
tp6585
a(I2
I0
I0
I0
tp6586
a(I6
I0
I0
I0
tp6587
a(I11
I0
I0
I0
tp6588
a(I5
I0
I0
I0
tp6589
a(I12
I0
I0
I0
tp6590
a(I-1
I0
I0
I0
tp6591
a(I5
I0
I0
I0
tp6592
a(I11
I0
I0
I0
tp6593
a(I5
I0
I0
I0
tp6594
a(I6
I0
I0
I0
tp6595
a(I11
I0
I0
I0
tp6596
a(I11
I0
I0
I0
tp6597
a(I-1
I0
I0
I0
tp6598
a(I12
I0
I0
I0
tp6599
a(I5
I0
I0
I0
tp6600
a(I2
I0
I0
I0
tp6601
a(I6
I0
I0
I0
tp6602
a(I11
I0
I0
I0
tp6603
a(I27
I0
I0
I0
tp6604
a(I5
I1
I1
I1
tp6605
a(I2
I0
I0
I0
tp6606
a(I5
I0
I0
I0
tp6607
a(I2
I0
I0
I0
tp6608
a(I6
I0
I0
I0
tp6609
a(I11
I0
I0
I0
tp6610
a(I5
I0
I0
I0
tp6611
a(I28
I0
I0
I0
tp6612
a(I19
I0
I0
I0
tp6613
a(I29
I0
I0
I0
tp6614
a(I5
I0
I0
I0
tp6615
a(I5
I0
I0
I0
tp6616
a(I6
I0
I0
I0
tp6617
a(I12
I0
I0
I0
tp6618
a(I0
I0
I0
I0
tp6619
a(I19
I0
I0
I0
tp6620
a(I5
I0
I0
I0
tp6621
a(I18
I0
I0
I0
tp6622
a(I7
I0
I0
I0
tp6623
a(I11
I0
I0
I0
tp6624
a(I0
I0
I0
I0
tp6625
a(I6
I0
I0
I0
tp6626
a(I11
I0
I0
I0
tp6627
a(I5
I0
I0
I0
tp6628
a(I11
I0
I0
I0
tp6629
a(I11
I0
I0
I0
tp6630
a(I-1
I0
I0
I0
tp6631
a(I6
I0
I0
I0
tp6632
a(I12
I0
I0
I0
tp6633
a(I27
I0
I0
I0
tp6634
a(I19
I0
I0
I0
tp6635
a(I7
I0
I0
I0
tp6636
a(I5
I0
I0
I0
tp6637
a(I2
I0
I0
I0
tp6638
a(I5
I0
I0
I0
tp6639
a(I6
I0
I0
I0
tp6640
a(I11
I0
I0
I0
tp6641
a(I28
I0
I0
I0
tp6642
a(I19
I0
I0
I0
tp6643
a(I5
I0
I0
I0
tp6644
a(I6
I0
I0
I0
tp6645
a(I12
I0
I0
I0
tp6646
a(I-1
I0
I0
I0
tp6647
a(I11
I0
I0
I0
tp6648
a(I-1
I0
I0
I0
tp6649
a(I11
I0
I0
I0
tp6650
a(I-1
I0
I0
I0
tp6651
a(I0
I0
I0
I0
tp6652
a(I19
I0
I0
I0
tp6653
a(I5
I0
I0
I0
tp6654
a(I6
I0
I0
I0
tp6655
a(I11
I0
I0
I0
tp6656
a(I6
I0
I0
I0
tp6657
a(I5
I0
I0
I0
tp6658
a(I12
I0
I0
I0
tp6659
a(I-1
I0
I0
I0
tp6660
a(I12
I0
I0
I0
tp6661
a(I-1
I0
I0
I0
tp6662
a(I12
I0
I0
I0
tp6663
a(I0
I0
I0
I0
tp6664
a(I12
I0
I0
I0
tp6665
a(I-1
I0
I0
I0
tp6666
a(I2
I0
I0
I0
tp6667
a(I6
I0
I0
I0
tp6668
a(I12
I0
I0
I0
tp6669
a(I27
I0
I0
I0
tp6670
a(I29
I0
I0
I0
tp6671
a(I5
I0
I0
I0
tp6672
a(I18
I0
I0
I0
tp6673
a(I6
I0
I0
I0
tp6674
a(I11
I0
I0
I0
tp6675
a(I5
I0
I0
I0
tp6676
a(I2
I0
I0
I0
tp6677
a(I6
I0
I0
I0
tp6678
a(I11
I0
I0
I0
tp6679
a(I5
I0
I0
I0
tp6680
a(I11
I0
I0
I0
tp6681
a(I0
I0
I0
I0
tp6682
a(I27
I0
I0
I0
tp6683
a(I19
I0
I0
I0
tp6684
a(I29
I0
I0
I0
tp6685
a(I5
I0
I0
I0
tp6686
a(I-1
I0
I0
I0
tp6687
a(I28
I0
I0
I0
tp6688
a(I6
I0
I0
I0
tp6689
a(I11
I0
I0
I0
tp6690
a(I-1
I0
I0
I0
tp6691
a(I11
I0
I0
I0
tp6692
a(I12
I0
I0
I0
tp6693
a(I-1
I0
I0
I0
tp6694
a(I6
I0
I0
I0
tp6695
a(I12
I0
I0
I0
tp6696
a(I0
I0
I0
I0
tp6697
a(I6
I0
I0
I0
tp6698
a(I12
I0
I0
I0
tp6699
a(I-1
I0
I0
I0
tp6700
a(I2
I0
I0
I0
tp6701
a(I11
I0
I0
I0
tp6702
a(I19
I0
I0
I0
tp6703
a(I27
I0
I0
I0
tp6704
a(I2
I0
I0
I0
tp6705
a(I11
I0
I0
I0
tp6706
a(I5
I0
I0
I0
tp6707
a(I6
I0
I0
I0
tp6708
a(I12
I0
I0
I0
tp6709
a(I0
I0
I0
I0
tp6710
a(I11
I0
I0
I0
tp6711
a(I12
I0
I0
I0
tp6712
a(I6
I0
I0
I0
tp6713
a(I5
I0
I0
I0
tp6714
a(I11
I0
I0
I0
tp6715
a(I0
I0
I0
I0
tp6716
a(I2
I0
I0
I0
tp6717
a(I11
I0
I0
I0
tp6718
a(I33
I0
I0
I0
tp6719
a(I27
I0
I0
I0
tp6720
a(I2
I0
I0
I0
tp6721
a(I6
I0
I0
I0
tp6722
a(I11
I0
I0
I0
tp6723
a(I11
I0
I0
I0
tp6724
a(I0
I0
I0
I0
tp6725
a(I11
I0
I0
I0
tp6726
a(I5
I0
I0
I0
tp6727
a(I12
I0
I0
I0
tp6728
a(I0
I0
I0
I0
tp6729
a(I2
I0
I0
I0
tp6730
a(I11
I0
I0
I0
tp6731
a(I11
I0
I0
I0
tp6732
a(I-1
I0
I0
I0
tp6733
a(I2
I0
I0
I0
tp6734
a(I11
I0
I0
I0
tp6735
a(I5
I0
I0
I0
tp6736
a(I19
I0
I0
I0
tp6737
a(I29
I0
I0
I0
tp6738
a(I12
I0
I0
I0
tp6739
a(I0
I0
I0
I0
tp6740
a(I19
I0
I0
I0
tp6741
a(I11
I0
I0
I0
tp6742
a(I12
I0
I0
I0
tp6743
a(I27
I0
I0
I0
tp6744
a(I29
I0
I0
I0
tp6745
a(I5
I0
I0
I0
tp6746
a(I2
I0
I0
I0
tp6747
a(I12
I0
I0
I0
tp6748
a(I-1
I0
I0
I0
tp6749
a(I12
I0
I0
I0
tp6750
a(I-1
I0
I0
I0
tp6751
a(I12
I0
I0
I0
tp6752
a(I0
I0
I0
I0
tp6753
a(I11
I0
I0
I0
tp6754
a(I-1
I0
I0
I0
tp6755
a(I2
I0
I0
I0
tp6756
a(I11
I0
I0
I0
tp6757
a(I5
I0
I0
I0
tp6758
a(I11
I1
I1
I1
tp6759
a(I12
I1
I1
I0
tp6760
a(I19
I0
I0
I0
tp6761
a(I27
I0
I0
I0
tp6762
a(I6
I0
I0
I0
tp6763
a(I-1
I0
I0
I0
tp6764
a(I11
I1
I1
I1
tp6765
a(I27
I0
I0
I1
tp6766
a(I6
I0
I0
I0
tp6767
a(I11
I1
I1
I1
tp6768
a(I12
I1
I1
I0
tp6769
a(I5
I1
I1
I1
tp6770
a(I2
I0
I0
I0
tp6771
a(I11
I0
I0
I0
tp6772
a(I11
I0
I0
I0
tp6773
a(I-1
I0
I0
I0
tp6774
a(I0
I0
I0
I0
tp6775
a(I27
I0
I0
I0
tp6776
a(I17
I0
I0
I0
tp6777
a(I24
I0
I0
I0
tp6778
a(I6
I0
I0
I0
tp6779
a(I11
I0
I0
I0
tp6780
a(I5
I0
I0
I0
tp6781
a(I2
I0
I0
I0
tp6782
a(I11
I0
I0
I0
tp6783
a(I5
I0
I0
I0
tp6784
a(I11
I0
I0
I0
tp6785
a(I-1
I0
I0
I0
tp6786
a(I17
I0
I0
I0
tp6787
a(I27
I0
I0
I0
tp6788
a(I2
I0
I0
I0
tp6789
a(I11
I0
I0
I0
tp6790
a(I5
I0
I0
I0
tp6791
a(I1
I0
I0
I0
tp6792
a(I5
I0
I0
I0
tp6793
a(I17
I0
I0
I0
tp6794
a(I5
I0
I0
I0
tp6795
a(I11
I0
I0
I0
tp6796
a(I-1
I0
I0
I0
tp6797
a(I2
I0
I0
I0
tp6798
a(I12
I0
I0
I0
tp6799
a(I27
I0
I0
I0
tp6800
a(I2
I0
I0
I0
tp6801
a(I7
I0
I0
I0
tp6802
a(I6
I0
I0
I0
tp6803
a(I11
I0
I0
I0
tp6804
a(I-1
I0
I0
I0
tp6805
atp6806
.